

Microchip Technology PIC18 LITE Macro Assembler V1.32 build 58300 
                                                                                               Thu Nov  5 23:17:15 2015

Microchip Technology Omniscient Code Generator (Lite mode) build 58300
     1                           	processor	18F458
     2                           	fnconf	rparam,??,?,0
     3                           	opt	pw 120
     4                           	opt	lm
     5                           	psect	text0,global,reloc=2,class=CODE,delta=1
     6                           	psect	cinit,global,reloc=2,class=CODE,delta=1
     7                           	psect	bssCOMRAM,global,class=COMRAM,space=1,delta=1
     8                           	psect	bssBANK0,global,class=BANK0,space=1,delta=1
     9                           	psect	cstackCOMRAM,global,class=COMRAM,space=1,delta=1
    10                           	psect	text1,global,reloc=2,class=CODE,delta=1
    11                           	psect	text2,global,reloc=2,class=CODE,delta=1
    12                           	psect	text3,global,reloc=2,class=CODE,delta=1
    13                           	psect	text4,global,reloc=2,class=CODE,delta=1
    14                           	psect	text5,global,reloc=2,class=CODE,delta=1
    15                           	psect	text6,global,reloc=2,class=CODE,delta=1
    16                           	psect	text7,global,reloc=2,class=CODE,delta=1
    17                           	psect	text8,global,reloc=2,class=CODE,delta=1
    18                           	psect	text9,global,reloc=2,class=CODE,delta=1
    19                           	psect	text10,global,reloc=2,class=CODE,delta=1
    20                           	psect	text11,global,reloc=2,class=CODE,delta=1
    21                           	psect	text12,global,reloc=2,class=CODE,delta=1
    22                           	psect	text13,global,reloc=2,class=CODE,delta=1
    23                           	psect	text14,global,reloc=2,class=CODE,delta=1
    24                           	psect	text15,global,reloc=2,class=CODE,delta=1
    25                           	psect	text16,global,reloc=2,class=CODE,delta=1
    26                           	psect	text17,global,reloc=2,class=CODE,delta=1
    27                           	psect	text18,global,reloc=2,class=CODE,delta=1
    28                           	psect	text19,global,reloc=2,class=CODE,delta=1
    29                           	psect	text20,global,reloc=2,class=CODE,delta=1
    30                           	psect	text21,global,reloc=2,class=CODE,delta=1
    31                           	psect	text22,global,reloc=2,class=CODE,delta=1
    32                           	psect	text23,global,reloc=2,class=CODE,delta=1
    33                           	psect	text24,global,reloc=2,class=CODE,delta=1
    34                           	psect	text25,global,reloc=2,class=CODE,delta=1
    35                           	psect	text26,global,reloc=2,class=CODE,delta=1
    36                           	psect	text27,global,reloc=2,class=CODE,delta=1
    37                           	psect	text28,global,reloc=2,class=CODE,delta=1
    38                           	psect	text29,global,reloc=2,class=CODE,delta=1
    39                           	psect	intsave_regs,global,class=BIGRAM,space=1,delta=1
    40                           	psect	rparam,global,class=COMRAM,space=1,delta=1
    41  0000                     _BRGCON1	set	3952
    42  0000                     _BRGCON2	set	3953
    43  0000                     _BRGCON3	set	3954
    44  0000                     _CANCON	set	3951
    45  0000                     _CANSTAT	set	3950
    46  0000                     _LATBbits	set	3978
    47  0000                     _PIE1bits	set	3997
    48  0000                     _PIR1bits	set	3998
    49  0000                     _RCSTA	set	4011
    50  0000                     _RCSTAbits	set	4011
    51  0000                     _RXB0CON	set	3936
    52  0000                     _RXB0D0	set	3942
    53  0000                     _RXB0D1	set	3943
    54  0000                     _RXB0D2	set	3944
    55  0000                     _RXB0D3	set	3945
    56  0000                     _RXB0D4	set	3946
    57  0000                     _RXB0D5	set	3947
    58  0000                     _RXB0D6	set	3948
    59  0000                     _RXB0D7	set	3949
    60  0000                     _RXB0SIDH	set	3937
    61  0000                     _RXB0SIDL	set	3938
    62  0000                     _RXB1CON	set	3920
    63  0000                     _RXF0SIDL	set	3841
    64  0000                     _RXF1SIDL	set	3845
    65  0000                     _RXF2SIDL	set	3849
    66  0000                     _RXF3SIDL	set	3853
    67  0000                     _RXF4SIDL	set	3857
    68  0000                     _RXF5SIDL	set	3861
    69  0000                     _RXM0SIDH	set	3864
    70  0000                     _RXM0SIDL	set	3865
    71  0000                     _RXM1SIDH	set	3868
    72  0000                     _RXM1SIDL	set	3869
    73  0000                     _SPBRG	set	4015
    74  0000                     _SSPADD	set	4040
    75  0000                     _SSPBUF	set	4041
    76  0000                     _SSPCON1	set	4038
    77  0000                     _SSPCON1bits	set	4038
    78  0000                     _SSPCON2	set	4037
    79  0000                     _SSPCON2bits	set	4037
    80  0000                     _SSPSTAT	set	4039
    81  0000                     _SSPSTATbits	set	4039
    82  0000                     _TRISB	set	3987
    83  0000                     _TRISBbits	set	3987
    84  0000                     _TRISCbits	set	3988
    85  0000                     _TXB0CON	set	3904
    86  0000                     _TXB0D0	set	3910
    87  0000                     _TXB0D1	set	3911
    88  0000                     _TXB0D2	set	3912
    89  0000                     _TXB0D3	set	3913
    90  0000                     _TXB0D4	set	3914
    91  0000                     _TXB0D5	set	3915
    92  0000                     _TXB0D6	set	3916
    93  0000                     _TXB0D7	set	3917
    94  0000                     _TXB0DLC	set	3909
    95  0000                     _TXB0SIDH	set	3905
    96  0000                     _TXB0SIDL	set	3906
    97  0000                     _TXSTA	set	4012
    98  0000                     _TXSTAbits	set	4012
    99                           
   100 ;;
   101 ;;Main: autosize = 0, tempsize = 1, incstack = 0, save=0
   102 ;;
   103 ;; *************** function _main *****************
   104 ;; Defined at:
   105 ;;		line 100 in file "main.c"
   106 ;; Parameters:    Size  Location     Type
   107 ;;		None
   108 ;; Auto vars:     Size  Location     Type
   109 ;;  ay              2   48[COMRAM] int 
   110 ;;  ay_unsigned_    2   46[COMRAM] unsigned char [2]
   111 ;;  gz              2   44[COMRAM] int 
   112 ;;  gy              2   42[COMRAM] int 
   113 ;;  gx              2   40[COMRAM] int 
   114 ;;  az              2   38[COMRAM] int 
   115 ;;  ax              2   36[COMRAM] int 
   116 ;; Return value:  Size  Location     Type
   117 ;;		None               void
   118 ;; Registers used:
   119 ;;		wreg, fsr2l, fsr2h, status,2, status,0, prodl, prodh, cstack
   120 ;; Tracked objects:
   121 ;;		On entry : 0/0
   122 ;;		On exit  : 0/0
   123 ;;		Unchanged: 0/0
   124 ;; Data sizes:     COMRAM   BANK0   BANK1   BANK2   BANK3   BANK4   BANK5
   125 ;;      Params:         0       0       0       0       0       0       0
   126 ;;      Locals:        14       0       0       0       0       0       0
   127 ;;      Temps:          1       0       0       0       0       0       0
   128 ;;      Totals:        15       0       0       0       0       0       0
   129 ;;Total ram usage:       15 bytes
   130 ;; Hardware stack levels required when called:    8
   131 ;; This function calls:
   132 ;;		_CAN_Transmit
   133 ;;		_MPU6050_getMotion6
   134 ;;		_convertFrom16To8
   135 ;;		_flashLED
   136 ;;		_initI2C_USART
   137 ;;		_initMPU6050
   138 ;;		_setupCANTxRx
   139 ;; This function is called by:
   140 ;;		Startup code after reset
   141 ;; This function uses a non-reentrant model
   142 ;;
   143                           
   144                           	psect	text0
   145  003D64                     __ptext0:
   146                           	opt stack 0
   147  003D64                     _main:
   148                           	opt stack 23
   149                           
   150                           ;incstack = 0
   151  003D64  FFFF               	dw	65535
   152                           
   153                           ;main.c: 101: int16_t ax, ay, az, gx, gy, gz;
   154                           ;main.c: 102: uint8_t ay_unsigned_array[2];
   155                           ;main.c: 103: initI2C_USART();
   156  003D66  ECF3  F01C         	call	_initI2C_USART	;wreg free
   157                           
   158                           ;main.c: 104: initMPU6050();
   159  003D6A  ECF5  F01B         	call	_initMPU6050	;wreg free
   160                           
   161                           ;main.c: 105: setupCANTxRx();
   162  003D6E  ECEB  F01B         	call	_setupCANTxRx	;wreg free
   163                           
   164                           ;main.c: 108: TRISBbits.TRISB0 = 0;
   165  003D72  9093               	bcf	3987,0,c	;volatile
   166                           
   167                           ;main.c: 109: flashLED();
   168  003D74  ECC8  F01C         	call	_flashLED	;wreg free
   169  003D78                     l4952:
   170                           
   171                           ;main.c: 111: {
   172                           ;main.c: 113: MPU6050_getMotion6(&ax, &ay, &az, &gx, &gy, &gz);
   173  003D78  0E00               	movlw	high main@ax
   174  003D7A  6E14               	movwf	MPU6050_getMotion6@ax+1,c
   175  003D7C  0E25               	movlw	low main@ax
   176  003D7E  6E13               	movwf	MPU6050_getMotion6@ax,c
   177  003D80  0E00               	movlw	high main@ay
   178  003D82  6E16               	movwf	MPU6050_getMotion6@ay+1,c
   179  003D84  0E31               	movlw	low main@ay
   180  003D86  6E15               	movwf	MPU6050_getMotion6@ay,c
   181  003D88  0E00               	movlw	high main@az
   182  003D8A  6E18               	movwf	MPU6050_getMotion6@az+1,c
   183  003D8C  0E27               	movlw	low main@az
   184  003D8E  6E17               	movwf	MPU6050_getMotion6@az,c
   185  003D90  0E00               	movlw	high main@gx
   186  003D92  6E1A               	movwf	MPU6050_getMotion6@gx+1,c
   187  003D94  0E29               	movlw	low main@gx
   188  003D96  6E19               	movwf	MPU6050_getMotion6@gx,c
   189  003D98  0E00               	movlw	high main@gy
   190  003D9A  6E1C               	movwf	MPU6050_getMotion6@gy+1,c
   191  003D9C  0E2B               	movlw	low main@gy
   192  003D9E  6E1B               	movwf	MPU6050_getMotion6@gy,c
   193  003DA0  0E00               	movlw	high main@gz
   194  003DA2  6E1E               	movwf	MPU6050_getMotion6@gz+1,c
   195  003DA4  0E2D               	movlw	low main@gz
   196  003DA6  6E1D               	movwf	MPU6050_getMotion6@gz,c
   197  003DA8  EC86  F01F         	call	_MPU6050_getMotion6	;wreg free
   198                           
   199                           ;main.c: 123: sendData[0] = 1;
   200  003DAC  0E01               	movlw	1
   201  003DAE  6E33               	movwf	_sendData,c	;volatile
   202                           
   203                           ;main.c: 124: if (ay >= 0)
   204  003DB0  BE32               	btfsc	main@ay+1,7,c
   205  003DB2  D002               	goto	l4960
   206                           
   207                           ;main.c: 125: {
   208                           ;main.c: 126: sendData[1] = 1;
   209  003DB4  0E01               	movlw	1
   210  003DB6  D001               	goto	L1
   211  003DB8                     l4960:
   212                           
   213                           ;main.c: 128: sendData[1] = 2;
   214  003DB8  0E02               	movlw	2
   215  003DBA                     L1:
   216  003DBA  6E34               	movwf	_sendData+1,c	;volatile
   217                           
   218                           ;main.c: 129: }
   219                           ;main.c: 130: ay_unsigned_array[0] = convertFrom16To8( (uint16_t) ay )[0];
   220  003DBC  C031  F001         	movff	main@ay,convertFrom16To8@dataAll
   221  003DC0  C032  F002         	movff	main@ay+1,convertFrom16To8@dataAll+1
   222  003DC4  EC81  F01C         	call	_convertFrom16To8	;wreg free
   223  003DC8  C001  FFD9         	movff	?_convertFrom16To8,fsr2l
   224  003DCC  C002  FFDA         	movff	?_convertFrom16To8+1,fsr2h
   225  003DD0  50DF               	movf	indf2,w,c
   226  003DD2  6E2F               	movwf	main@ay_unsigned_array,c
   227                           
   228                           ;main.c: 131: ay_unsigned_array[1] = convertFrom16To8( (uint16_t) ay )[1];
   229  003DD4  C031  F001         	movff	main@ay,convertFrom16To8@dataAll
   230  003DD8  C032  F002         	movff	main@ay+1,convertFrom16To8@dataAll+1
   231  003DDC  EC81  F01C         	call	_convertFrom16To8	;wreg free
   232  003DE0  0E01               	movlw	1
   233  003DE2  2401               	addwf	?_convertFrom16To8,w,c
   234  003DE4  6ED9               	movwf	fsr2l,c
   235  003DE6  0E00               	movlw	0
   236  003DE8  2002               	addwfc	?_convertFrom16To8+1,w,c
   237  003DEA  6EDA               	movwf	fsr2h,c
   238  003DEC  50DF               	movf	indf2,w,c
   239  003DEE  6E30               	movwf	main@ay_unsigned_array+1,c
   240                           
   241                           ;main.c: 132: sendData[2] = ay_unsigned_array[0];
   242  003DF0  C02F  F035         	movff	main@ay_unsigned_array,_sendData+2	;volatile
   243                           
   244                           ;main.c: 133: sendData[3] = ay_unsigned_array[1];
   245  003DF4  C030  F036         	movff	main@ay_unsigned_array+1,_sendData+3	;volatile
   246                           
   247                           ;main.c: 134: if (ay > 10)
   248  003DF8  5032               	movf	main@ay+1,w,c
   249  003DFA  0A80               	xorlw	128
   250  003DFC  0F80               	addlw	-128
   251  003DFE  0E0B               	movlw	11
   252  003E00  B4D8               	btfsc	status,2,c
   253  003E02  5C31               	subwf	main@ay,w,c
   254  003E04  B0D8               	btfsc	status,0,c
   255                           
   256                           ;main.c: 135: {
   257                           ;main.c: 136: LATBbits.LATB0 ^= 1;
   258  003E06  708A               	btg	3978,0,c	;volatile
   259                           
   260                           ;main.c: 137: }
   261                           ;main.c: 138: CAN_Transmit();
   262  003E08  ECF1  F01D         	call	_CAN_Transmit	;wreg free
   263                           
   264                           ;main.c: 140: _delay((unsigned long)((25)*(20000000/4000.0)));
   265  003E0C  0E7A               	movlw	122
   266  003E0E  6E24               	movwf	??_main& (0+255),c
   267  003E10  0ED4               	movlw	212
   268  003E12                     u2487:
   269  003E12  2EE8               	decfsz	wreg,f,c
   270  003E14  D7FE               	goto	u2487
   271  003E16  2E24               	decfsz	??_main& (0+255),f,c
   272  003E18  D7FC               	goto	u2487
   273  003E1A  D000               	nop2	
   274  003E1C  D7AD               	goto	l4952
   275  003E1E                     __end_of_main:
   276                           	opt stack 0
   277                           wreg	equ	0xFE8
   278                           indf2	equ	0xFDF
   279                           fsr2h	equ	0xFDA
   280                           fsr2l	equ	0xFD9
   281                           status	equ	0xFD8
   282                           
   283                           	psect	cinit
   284  003944                     __pcinit:
   285                           	opt stack 0
   286  003944                     start_initialization:
   287                           	opt stack 0
   288  003944                     __initialization:
   289                           	opt stack 0
   290                           
   291                           ; Clear objects allocated to BANK0 (58 bytes)
   292  003944  EE00  F060         	lfsr	0,__pbssBANK0
   293  003948  0E3A               	movlw	58
   294  00394A                     clear_0:
   295  00394A  6AEE               	clrf	postinc0,c
   296  00394C  06E8               	decf	wreg,f,c
   297  00394E  E1FD               	bnz	clear_0
   298                           
   299                           ; Clear objects allocated to COMRAM (45 bytes)
   300  003950  EE00  F033         	lfsr	0,__pbssCOMRAM
   301  003954  0E2D               	movlw	45
   302  003956                     clear_1:
   303  003956  6AEE               	clrf	postinc0,c
   304  003958  06E8               	decf	wreg,f,c
   305  00395A  E1FD               	bnz	clear_1
   306  00395C                     end_of_initialization:
   307                           	opt stack 0
   308  00395C                     __end_of__initialization:
   309                           	opt stack 0
   310  00395C  0E00               	movlw	low (__Lmediumconst shr (0+16))
   311  00395E  6EF8               	movwf	tblptru,c
   312  003960  0100               	movlb	0
   313  003962  EFB2  F01E         	goto	_main	;jump to C main() function
   314                           tblptru	equ	0xFF8
   315                           postinc0	equ	0xFEE
   316                           wreg	equ	0xFE8
   317                           indf2	equ	0xFDF
   318                           fsr2h	equ	0xFDA
   319                           fsr2l	equ	0xFD9
   320                           status	equ	0xFD8
   321                           
   322                           	psect	bssCOMRAM
   323  000033                     __pbssCOMRAM:
   324                           	opt stack 0
   325  000033                     _sendData:
   326                           	opt stack 0
   327  000033                     	ds	8
   328  00003B                     _Sens2:
   329                           	opt stack 0
   330  00003B                     	ds	4
   331  00003F                     _dT:
   332                           	opt stack 0
   333  00003F                     	ds	4
   334  000043                     _Resolution:
   335                           	opt stack 0
   336  000043                     	ds	2
   337  000045                     _HighByte:
   338                           	opt stack 0
   339  000045                     	ds	1
   340  000046                     _LowByte:
   341                           	opt stack 0
   342  000046                     	ds	1
   343  000047                     _MidByte:
   344                           	opt stack 0
   345  000047                     	ds	1
   346  000048                     _mpu6050:
   347                           	opt stack 0
   348  000048                     	ds	15
   349  000057                     _TEMP:
   350                           	opt stack 0
   351  000057                     	ds	4
   352  00005B                     _I2C_Bytes:
   353                           	opt stack 0
   354  00005B                     	ds	3
   355  00005E                     convertFrom16To8@arrayData:
   356                           	opt stack 0
   357  00005E                     	ds	2
   358                           tblptru	equ	0xFF8
   359                           postinc0	equ	0xFEE
   360                           wreg	equ	0xFE8
   361                           indf2	equ	0xFDF
   362                           fsr2h	equ	0xFDA
   363                           fsr2l	equ	0xFD9
   364                           status	equ	0xFD8
   365                           
   366                           	psect	bssBANK0
   367  000060                     __pbssBANK0:
   368                           	opt stack 0
   369  000060                     _receivedData:
   370                           	opt stack 0
   371  000060                     	ds	8
   372  000068                     _D1:
   373                           	opt stack 0
   374  000068                     	ds	4
   375  00006C                     _D2:
   376                           	opt stack 0
   377  00006C                     	ds	4
   378  000070                     _OFF2:
   379                           	opt stack 0
   380  000070                     	ds	4
   381  000074                     _Offset:
   382                           	opt stack 0
   383  000074                     	ds	4
   384  000078                     _Sensitivity:
   385                           	opt stack 0
   386  000078                     	ds	4
   387  00007C                     _T2:
   388                           	opt stack 0
   389  00007C                     	ds	4
   390  000080                     _mbarInt:
   391                           	opt stack 0
   392  000080                     	ds	4
   393  000084                     _mbar:
   394                           	opt stack 0
   395  000084                     	ds	3
   396  000087                     _tempC:
   397                           	opt stack 0
   398  000087                     	ds	3
   399  00008A                     _sensorCoeffs:
   400                           	opt stack 0
   401  00008A                     	ds	16
   402                           tblptru	equ	0xFF8
   403                           postinc0	equ	0xFEE
   404                           wreg	equ	0xFE8
   405                           indf2	equ	0xFDF
   406                           fsr2h	equ	0xFDA
   407                           fsr2l	equ	0xFD9
   408                           status	equ	0xFD8
   409                           
   410                           	psect	cstackCOMRAM
   411  000001                     __pcstackCOMRAM:
   412                           	opt stack 0
   413  000001                     ??_IdleI2C:
   414  000001                     ??_ReadI2C:
   415  000001                     ??_Delay10KTCYx:
   416  000001                     ??_CAN_Transmit:
   417  000001                     ?_convertFrom16To8:
   418                           	opt stack 0
   419  000001                     ?___wmul:
   420                           	opt stack 0
   421  000001                     MPU6050@address:
   422                           	opt stack 0
   423  000001                     CAN_SetMode@canMode:
   424                           	opt stack 0
   425  000001                     OpenI2C@slew:
   426                           	opt stack 0
   427  000001                     delayzz@i:
   428                           	opt stack 0
   429  000001                     convertFrom16To8@dataAll:
   430                           	opt stack 0
   431  000001                     OpenUSART@spbrg:
   432                           	opt stack 0
   433  000001                     ___wmul@multiplier:
   434                           	opt stack 0
   435                           
   436                           ; 2 bytes @ 0x0
   437  000001                     	ds	1
   438  000002                     ??_WriteI2C:
   439  000002                     OpenI2C@sync_mode:
   440                           	opt stack 0
   441  000002                     Delay10KTCYx@unit:
   442                           	opt stack 0
   443                           
   444                           ; 1 bytes @ 0x1
   445  000002                     	ds	1
   446  000003                     ??_convertFrom16To8:
   447  000003                     OpenUSART@config:
   448                           	opt stack 0
   449  000003                     WriteI2C@data_out:
   450                           	opt stack 0
   451  000003                     delayzz@j:
   452                           	opt stack 0
   453  000003                     ___wmul@multiplicand:
   454                           	opt stack 0
   455                           
   456                           ; 2 bytes @ 0x2
   457  000003                     	ds	1
   458  000004                     I2Cdev_writeBytes@regAddr:
   459                           	opt stack 0
   460  000004                     CAN_Transmit@canId:
   461                           	opt stack 0
   462                           
   463                           ; 2 bytes @ 0x3
   464  000004                     	ds	1
   465  000005                     I2Cdev_writeBytes@length:
   466                           	opt stack 0
   467  000005                     flashLED@count:
   468                           	opt stack 0
   469  000005                     ___wmul@product:
   470                           	opt stack 0
   471                           
   472                           ; 2 bytes @ 0x4
   473  000005                     	ds	1
   474  000006                     I2Cdev_writeBytes@data:
   475                           	opt stack 0
   476                           
   477                           ; 2 bytes @ 0x5
   478  000006                     	ds	1
   479  000007                     I2Cdev_readBytes@regAddr:
   480                           	opt stack 0
   481                           
   482                           ; 1 bytes @ 0x6
   483  000007                     	ds	1
   484  000008                     I2Cdev_readBytes@length:
   485                           	opt stack 0
   486  000008                     I2Cdev_writeBytes@devAddr:
   487                           	opt stack 0
   488                           
   489                           ; 1 bytes @ 0x7
   490  000008                     	ds	1
   491  000009                     I2Cdev_writeBytes@i:
   492                           	opt stack 0
   493  000009                     I2Cdev_readBytes@data:
   494                           	opt stack 0
   495                           
   496                           ; 2 bytes @ 0x8
   497  000009                     	ds	1
   498  00000A                     I2Cdev_writeByte@regAddr:
   499                           	opt stack 0
   500                           
   501                           ; 1 bytes @ 0x9
   502  00000A                     	ds	1
   503  00000B                     ??_I2Cdev_readBytes:
   504  00000B                     I2Cdev_writeByte@data:
   505                           	opt stack 0
   506                           
   507                           ; 1 bytes @ 0xA
   508  00000B                     	ds	1
   509  00000C                     I2Cdev_writeByte@devAddr:
   510                           	opt stack 0
   511                           
   512                           ; 1 bytes @ 0xB
   513  00000C                     	ds	5
   514  000011                     I2Cdev_readBytes@devAddr:
   515                           	opt stack 0
   516                           
   517                           ; 1 bytes @ 0x10
   518  000011                     	ds	1
   519  000012                     I2Cdev_readBytes@count:
   520                           	opt stack 0
   521                           
   522                           ; 1 bytes @ 0x11
   523  000012                     	ds	1
   524  000013                     I2Cdev_readByte@regAddr:
   525                           	opt stack 0
   526  000013                     MPU6050_getMotion6@ax:
   527                           	opt stack 0
   528                           
   529                           ; 2 bytes @ 0x12
   530  000013                     	ds	1
   531  000014                     I2Cdev_readByte@data:
   532                           	opt stack 0
   533                           
   534                           ; 2 bytes @ 0x13
   535  000014                     	ds	1
   536  000015                     MPU6050_getMotion6@ay:
   537                           	opt stack 0
   538                           
   539                           ; 2 bytes @ 0x14
   540  000015                     	ds	1
   541  000016                     I2Cdev_readByte@devAddr:
   542                           	opt stack 0
   543                           
   544                           ; 1 bytes @ 0x15
   545  000016                     	ds	1
   546  000017                     I2Cdev_writeBit@regAddr:
   547                           	opt stack 0
   548  000017                     I2Cdev_writeBits@regAddr:
   549                           	opt stack 0
   550  000017                     MPU6050_getMotion6@az:
   551                           	opt stack 0
   552                           
   553                           ; 2 bytes @ 0x16
   554  000017                     	ds	1
   555  000018                     I2Cdev_writeBit@bitNum:
   556                           	opt stack 0
   557  000018                     I2Cdev_writeBits@bitStart:
   558                           	opt stack 0
   559                           
   560                           ; 1 bytes @ 0x17
   561  000018                     	ds	1
   562  000019                     I2Cdev_writeBit@data:
   563                           	opt stack 0
   564  000019                     I2Cdev_writeBits@length:
   565                           	opt stack 0
   566  000019                     MPU6050_getMotion6@gx:
   567                           	opt stack 0
   568                           
   569                           ; 2 bytes @ 0x18
   570  000019                     	ds	1
   571  00001A                     ??_I2Cdev_writeBit:
   572  00001A                     I2Cdev_writeBits@data:
   573                           	opt stack 0
   574                           
   575                           ; 1 bytes @ 0x19
   576  00001A                     	ds	1
   577  00001B                     ??_I2Cdev_writeBits:
   578  00001B                     MPU6050_getMotion6@gy:
   579                           	opt stack 0
   580                           
   581                           ; 2 bytes @ 0x1A
   582  00001B                     	ds	2
   583  00001D                     MPU6050_getMotion6@gz:
   584                           	opt stack 0
   585                           
   586                           ; 2 bytes @ 0x1C
   587  00001D                     	ds	1
   588  00001E                     I2Cdev_writeBits@devAddr:
   589                           	opt stack 0
   590                           
   591                           ; 1 bytes @ 0x1D
   592  00001E                     	ds	1
   593  00001F                     ??_MPU6050_getMotion6:
   594  00001F                     I2Cdev_writeBits@mask:
   595                           	opt stack 0
   596  00001F                     _I2Cdev_writeBit$411:
   597                           	opt stack 0
   598                           
   599                           ; 2 bytes @ 0x1E
   600  00001F                     	ds	1
   601  000020                     I2Cdev_writeBits@b:
   602                           	opt stack 0
   603                           
   604                           ; 1 bytes @ 0x1F
   605  000020                     	ds	1
   606  000021                     I2Cdev_writeBit@devAddr:
   607                           	opt stack 0
   608  000021                     MPU6050_setFullScaleGyroRange@range:
   609                           	opt stack 0
   610  000021                     MPU6050_setFullScaleAccelRange@range:
   611                           	opt stack 0
   612  000021                     MPU6050_setClockSource@source:
   613                           	opt stack 0
   614                           
   615                           ; 1 bytes @ 0x20
   616  000021                     	ds	1
   617  000022                     I2Cdev_writeBit@b:
   618                           	opt stack 0
   619                           
   620                           ; 1 bytes @ 0x21
   621  000022                     	ds	1
   622  000023                     MPU6050_setSleepEnabled@enabled:
   623                           	opt stack 0
   624                           
   625                           ; 1 bytes @ 0x22
   626  000023                     	ds	1
   627  000024                     ??_main:
   628                           
   629                           ; 0 bytes @ 0x23
   630  000024                     	ds	1
   631  000025                     main@ax:
   632                           	opt stack 0
   633                           
   634                           ; 2 bytes @ 0x24
   635  000025                     	ds	2
   636  000027                     main@az:
   637                           	opt stack 0
   638                           
   639                           ; 2 bytes @ 0x26
   640  000027                     	ds	2
   641  000029                     main@gx:
   642                           	opt stack 0
   643                           
   644                           ; 2 bytes @ 0x28
   645  000029                     	ds	2
   646  00002B                     main@gy:
   647                           	opt stack 0
   648                           
   649                           ; 2 bytes @ 0x2A
   650  00002B                     	ds	2
   651  00002D                     main@gz:
   652                           	opt stack 0
   653                           
   654                           ; 2 bytes @ 0x2C
   655  00002D                     	ds	2
   656  00002F                     main@ay_unsigned_array:
   657                           	opt stack 0
   658                           
   659                           ; 2 bytes @ 0x2E
   660  00002F                     	ds	2
   661  000031                     main@ay:
   662                           	opt stack 0
   663                           
   664                           ; 2 bytes @ 0x30
   665  000031                     	ds	2
   666                           tblptru	equ	0xFF8
   667                           postinc0	equ	0xFEE
   668                           wreg	equ	0xFE8
   669                           indf2	equ	0xFDF
   670                           fsr2h	equ	0xFDA
   671                           fsr2l	equ	0xFD9
   672                           status	equ	0xFD8
   673                           
   674 ;; *************** function _setupCANTxRx *****************
   675 ;; Defined at:
   676 ;;		line 203 in file "../pic18f458_badgerloop.c"
   677 ;; Parameters:    Size  Location     Type
   678 ;;		None
   679 ;; Auto vars:     Size  Location     Type
   680 ;;		None
   681 ;; Return value:  Size  Location     Type
   682 ;;		None               void
   683 ;; Registers used:
   684 ;;		wreg, status,2, status,0, cstack
   685 ;; Tracked objects:
   686 ;;		On entry : 0/0
   687 ;;		On exit  : 0/0
   688 ;;		Unchanged: 0/0
   689 ;; Data sizes:     COMRAM   BANK0   BANK1   BANK2   BANK3   BANK4   BANK5
   690 ;;      Params:         0       0       0       0       0       0       0
   691 ;;      Locals:         0       0       0       0       0       0       0
   692 ;;      Temps:          0       0       0       0       0       0       0
   693 ;;      Totals:         0       0       0       0       0       0       0
   694 ;;Total ram usage:        0 bytes
   695 ;; Hardware stack levels used:    1
   696 ;; Hardware stack levels required when called:    2
   697 ;; This function calls:
   698 ;;		_CAN_Init
   699 ;;		_Delay10KTCYx
   700 ;; This function is called by:
   701 ;;		_main
   702 ;; This function uses a non-reentrant model
   703 ;;
   704                           
   705                           	psect	text1
   706  0037D6                     __ptext1:
   707                           	opt stack 0
   708  0037D6                     _setupCANTxRx:
   709                           	opt stack 28
   710                           
   711                           ;incstack = 0
   712  0037D6  FFFF               	dw	65535
   713                           
   714                           ;pic18f458_badgerloop.c: 206: TRISBbits.TRISB2 = 0;
   715  0037D8  9493               	bcf	3987,2,c	;volatile
   716                           
   717                           ;pic18f458_badgerloop.c: 208: TRISBbits.TRISB3 = 1;
   718  0037DA  8693               	bsf	3987,3,c	;volatile
   719                           
   720                           ;pic18f458_badgerloop.c: 211: CAN_Init();
   721  0037DC  ECBD  F01D         	call	_CAN_Init	;wreg free
   722                           
   723                           ;pic18f458_badgerloop.c: 214: Delay10KTCYx(50);
   724  0037E0  0E32               	movlw	50
   725  0037E2  EC19  F01C         	call	_Delay10KTCYx
   726  0037E6  0012               	return	
   727  0037E8  FFFF               	dw	65535	; errata NOP
   728  0037EA                     __end_of_setupCANTxRx:
   729                           	opt stack 0
   730                           tblptru	equ	0xFF8
   731                           postinc0	equ	0xFEE
   732                           wreg	equ	0xFE8
   733                           indf2	equ	0xFDF
   734                           fsr2h	equ	0xFDA
   735                           fsr2l	equ	0xFD9
   736                           status	equ	0xFD8
   737                           
   738 ;; *************** function _CAN_Init *****************
   739 ;; Defined at:
   740 ;;		line 163 in file "../pic18f458_badgerloop.c"
   741 ;; Parameters:    Size  Location     Type
   742 ;;		None
   743 ;; Auto vars:     Size  Location     Type
   744 ;;		None
   745 ;; Return value:  Size  Location     Type
   746 ;;		None               void
   747 ;; Registers used:
   748 ;;		wreg, status,2, status,0, cstack
   749 ;; Tracked objects:
   750 ;;		On entry : 0/0
   751 ;;		On exit  : 0/0
   752 ;;		Unchanged: 0/0
   753 ;; Data sizes:     COMRAM   BANK0   BANK1   BANK2   BANK3   BANK4   BANK5
   754 ;;      Params:         0       0       0       0       0       0       0
   755 ;;      Locals:         0       0       0       0       0       0       0
   756 ;;      Temps:          0       0       0       0       0       0       0
   757 ;;      Totals:         0       0       0       0       0       0       0
   758 ;;Total ram usage:        0 bytes
   759 ;; Hardware stack levels used:    1
   760 ;; Hardware stack levels required when called:    1
   761 ;; This function calls:
   762 ;;		_CAN_SetMode
   763 ;; This function is called by:
   764 ;;		_setupCANTxRx
   765 ;; This function uses a non-reentrant model
   766 ;;
   767                           
   768                           	psect	text2
   769  003B7A                     __ptext2:
   770                           	opt stack 0
   771  003B7A                     _CAN_Init:
   772                           	opt stack 28
   773                           
   774                           ;incstack = 0
   775  003B7A  FFFF               	dw	65535
   776                           
   777                           ;pic18f458_badgerloop.c: 165: TRISB = (1<<3);
   778  003B7C  0E08               	movlw	8
   779  003B7E  6E93               	movwf	3987,c	;volatile
   780                           
   781                           ;pic18f458_badgerloop.c: 168: CAN_SetMode((0x80));
   782  003B80  0E80               	movlw	128
   783  003B82  EC00  F01C         	call	_CAN_SetMode
   784                           
   785                           ;pic18f458_badgerloop.c: 177: BRGCON1 = 0x00;
   786  003B86  0E00               	movlw	0
   787  003B88  6E70               	movwf	3952,c	;volatile
   788                           
   789                           ;pic18f458_badgerloop.c: 178: BRGCON2 = 0xBA;
   790  003B8A  0EBA               	movlw	186
   791  003B8C  6E71               	movwf	3953,c	;volatile
   792                           
   793                           ;pic18f458_badgerloop.c: 179: BRGCON3 = 0x07;
   794  003B8E  0E07               	movlw	7
   795  003B90  6E72               	movwf	3954,c	;volatile
   796                           
   797                           ;pic18f458_badgerloop.c: 182: RXM0SIDH = 0; RXM0SIDL = 0;
   798  003B92  0E00               	movlw	0
   799  003B94  CFE8 FF18          	movff	wreg,3864
   800  003B98  0E00               	movlw	0
   801  003B9A  CFE8 FF19          	movff	wreg,3865
   802                           
   803                           ;pic18f458_badgerloop.c: 183: RXM1SIDH = 0; RXM1SIDL = 0;
   804  003B9E  0E00               	movlw	0
   805  003BA0  CFE8 FF1C          	movff	wreg,3868
   806  003BA4  0E00               	movlw	0
   807  003BA6  CFE8 FF1D          	movff	wreg,3869
   808                           
   809                           ;pic18f458_badgerloop.c: 184: RXF0SIDL = 0;
   810  003BAA  0E00               	movlw	0
   811  003BAC  CFE8 FF01          	movff	wreg,3841
   812                           
   813                           ;pic18f458_badgerloop.c: 185: RXF1SIDL = 0;
   814  003BB0  0E00               	movlw	0
   815  003BB2  CFE8 FF05          	movff	wreg,3845
   816                           
   817                           ;pic18f458_badgerloop.c: 186: RXF2SIDL = 0;
   818  003BB6  0E00               	movlw	0
   819  003BB8  CFE8 FF09          	movff	wreg,3849
   820                           
   821                           ;pic18f458_badgerloop.c: 187: RXF3SIDL = 0;
   822  003BBC  0E00               	movlw	0
   823  003BBE  CFE8 FF0D          	movff	wreg,3853
   824                           
   825                           ;pic18f458_badgerloop.c: 188: RXF4SIDL = 0;
   826  003BC2  0E00               	movlw	0
   827  003BC4  CFE8 FF11          	movff	wreg,3857
   828                           
   829                           ;pic18f458_badgerloop.c: 189: RXF5SIDL = 0;
   830  003BC8  0E00               	movlw	0
   831  003BCA  CFE8 FF15          	movff	wreg,3861
   832                           
   833                           ;pic18f458_badgerloop.c: 191: RXB0CON = 0;
   834  003BCE  0E00               	movlw	0
   835  003BD0  6E60               	movwf	3936,c	;volatile
   836                           
   837                           ;pic18f458_badgerloop.c: 192: RXB1CON = 0;
   838  003BD2  0E00               	movlw	0
   839  003BD4  CFE8 FF50          	movff	wreg,3920
   840                           
   841                           ;pic18f458_badgerloop.c: 200: CAN_SetMode((0x00));
   842  003BD8  0E00               	movlw	0
   843  003BDA  EC00  F01C         	call	_CAN_SetMode
   844  003BDE  0012               	return	
   845  003BE0  FFFF               	dw	65535	; errata NOP
   846  003BE2                     __end_of_CAN_Init:
   847                           	opt stack 0
   848                           tblptru	equ	0xFF8
   849                           postinc0	equ	0xFEE
   850                           wreg	equ	0xFE8
   851                           indf2	equ	0xFDF
   852                           fsr2h	equ	0xFDA
   853                           fsr2l	equ	0xFD9
   854                           status	equ	0xFD8
   855                           
   856 ;; *************** function _CAN_SetMode *****************
   857 ;; Defined at:
   858 ;;		line 154 in file "../pic18f458_badgerloop.c"
   859 ;; Parameters:    Size  Location     Type
   860 ;;  canMode         1    wreg     unsigned char 
   861 ;; Auto vars:     Size  Location     Type
   862 ;;  canMode         1    0[COMRAM] unsigned char 
   863 ;; Return value:  Size  Location     Type
   864 ;;		None               void
   865 ;; Registers used:
   866 ;;		wreg, status,2, status,0
   867 ;; Tracked objects:
   868 ;;		On entry : 0/0
   869 ;;		On exit  : 0/0
   870 ;;		Unchanged: 0/0
   871 ;; Data sizes:     COMRAM   BANK0   BANK1   BANK2   BANK3   BANK4   BANK5
   872 ;;      Params:         0       0       0       0       0       0       0
   873 ;;      Locals:         1       0       0       0       0       0       0
   874 ;;      Temps:          0       0       0       0       0       0       0
   875 ;;      Totals:         1       0       0       0       0       0       0
   876 ;;Total ram usage:        1 bytes
   877 ;; Hardware stack levels used:    1
   878 ;; This function calls:
   879 ;;		Nothing
   880 ;; This function is called by:
   881 ;;		_CAN_Init
   882 ;; This function uses a non-reentrant model
   883 ;;
   884                           
   885                           	psect	text3
   886  003800                     __ptext3:
   887                           	opt stack 0
   888  003800                     _CAN_SetMode:
   889                           	opt stack 28
   890                           
   891                           ;incstack = 0
   892  003800  FFFF               	dw	65535
   893                           
   894                           ;CAN_SetMode@canMode stored from wreg
   895  003802  6E01               	movwf	CAN_SetMode@canMode,c
   896                           
   897                           ;pic18f458_badgerloop.c: 157: CANCON = canMode;
   898  003804  C001  FF6F         	movff	CAN_SetMode@canMode,3951	;volatile
   899  003808                     l2068:
   900  003808  506E               	movf	3950,w,c	;volatile
   901  00380A  0BE0               	andlw	224
   902  00380C  1801               	xorwf	CAN_SetMode@canMode,w,c
   903  00380E  B4D8               	btfsc	status,2,c
   904  003810  0012               	return	
   905  003812  FFFF               	dw	65535	; assembler added errata NOP
   906  003814  D7F9               	goto	l2068
   907  003816  FFFF               	dw	65535	; errata NOP
   908  003818                     __end_of_CAN_SetMode:
   909                           	opt stack 0
   910                           tblptru	equ	0xFF8
   911                           postinc0	equ	0xFEE
   912                           wreg	equ	0xFE8
   913                           indf2	equ	0xFDF
   914                           fsr2h	equ	0xFDA
   915                           fsr2l	equ	0xFD9
   916                           status	equ	0xFD8
   917                           
   918 ;; *************** function _initMPU6050 *****************
   919 ;; Defined at:
   920 ;;		line 246 in file "../pic18f458_badgerloop.c"
   921 ;; Parameters:    Size  Location     Type
   922 ;;		None
   923 ;; Auto vars:     Size  Location     Type
   924 ;;		None
   925 ;; Return value:  Size  Location     Type
   926 ;;		None               void
   927 ;; Registers used:
   928 ;;		wreg, fsr2l, fsr2h, status,2, status,0, prodl, prodh, cstack
   929 ;; Tracked objects:
   930 ;;		On entry : 0/0
   931 ;;		On exit  : 0/0
   932 ;;		Unchanged: 0/0
   933 ;; Data sizes:     COMRAM   BANK0   BANK1   BANK2   BANK3   BANK4   BANK5
   934 ;;      Params:         0       0       0       0       0       0       0
   935 ;;      Locals:         0       0       0       0       0       0       0
   936 ;;      Temps:          0       0       0       0       0       0       0
   937 ;;      Totals:         0       0       0       0       0       0       0
   938 ;;Total ram usage:        0 bytes
   939 ;; Hardware stack levels used:    1
   940 ;; Hardware stack levels required when called:    7
   941 ;; This function calls:
   942 ;;		_Delay10KTCYx
   943 ;;		_MPU6050
   944 ;;		_MPU6050_initialize
   945 ;; This function is called by:
   946 ;;		_main
   947 ;; This function uses a non-reentrant model
   948 ;;
   949                           
   950                           	psect	text4
   951  0037EA                     __ptext4:
   952                           	opt stack 0
   953  0037EA                     _initMPU6050:
   954                           	opt stack 23
   955                           
   956                           ;incstack = 0
   957  0037EA  FFFF               	dw	65535
   958                           
   959                           ;pic18f458_badgerloop.c: 248: MPU6050(0x68);
   960  0037EC  0E68               	movlw	104
   961  0037EE  ECDB  F01B         	call	_MPU6050
   962                           
   963                           ;pic18f458_badgerloop.c: 250: MPU6050_initialize();
   964  0037F2  EC72  F01C         	call	_MPU6050_initialize	;wreg free
   965                           
   966                           ;pic18f458_badgerloop.c: 253: Delay10KTCYx(50);
   967  0037F6  0E32               	movlw	50
   968  0037F8  EC19  F01C         	call	_Delay10KTCYx
   969  0037FC  0012               	return	
   970  0037FE  FFFF               	dw	65535	; errata NOP
   971  003800                     __end_of_initMPU6050:
   972                           	opt stack 0
   973                           tblptru	equ	0xFF8
   974                           postinc0	equ	0xFEE
   975                           wreg	equ	0xFE8
   976                           indf2	equ	0xFDF
   977                           fsr2h	equ	0xFDA
   978                           fsr2l	equ	0xFD9
   979                           status	equ	0xFD8
   980                           
   981 ;; *************** function _MPU6050_initialize *****************
   982 ;; Defined at:
   983 ;;		line 62 in file "../MPU6050.c"
   984 ;; Parameters:    Size  Location     Type
   985 ;;		None
   986 ;; Auto vars:     Size  Location     Type
   987 ;;		None
   988 ;; Return value:  Size  Location     Type
   989 ;;		None               void
   990 ;; Registers used:
   991 ;;		wreg, fsr2l, fsr2h, status,2, status,0, prodl, prodh, cstack
   992 ;; Tracked objects:
   993 ;;		On entry : 0/0
   994 ;;		On exit  : 0/0
   995 ;;		Unchanged: 0/0
   996 ;; Data sizes:     COMRAM   BANK0   BANK1   BANK2   BANK3   BANK4   BANK5
   997 ;;      Params:         0       0       0       0       0       0       0
   998 ;;      Locals:         0       0       0       0       0       0       0
   999 ;;      Temps:          0       0       0       0       0       0       0
  1000 ;;      Totals:         0       0       0       0       0       0       0
  1001 ;;Total ram usage:        0 bytes
  1002 ;; Hardware stack levels used:    1
  1003 ;; Hardware stack levels required when called:    6
  1004 ;; This function calls:
  1005 ;;		_MPU6050_setClockSource
  1006 ;;		_MPU6050_setFullScaleAccelRange
  1007 ;;		_MPU6050_setFullScaleGyroRange
  1008 ;;		_MPU6050_setSleepEnabled
  1009 ;; This function is called by:
  1010 ;;		_initMPU6050
  1011 ;; This function uses a non-reentrant model
  1012 ;;
  1013                           
  1014                           	psect	text5
  1015  0038E4                     __ptext5:
  1016                           	opt stack 0
  1017  0038E4                     _MPU6050_initialize:
  1018                           	opt stack 23
  1019                           
  1020                           ;incstack = 0
  1021  0038E4  FFFF               	dw	65535
  1022                           
  1023                           ;MPU6050.c: 63: MPU6050_setClockSource(0x01);
  1024  0038E6  0E01               	movlw	1
  1025  0038E8  EC45  F01C         	call	_MPU6050_setClockSource
  1026                           
  1027                           ;MPU6050.c: 64: MPU6050_setFullScaleGyroRange(0x00);
  1028  0038EC  0E00               	movlw	0
  1029  0038EE  EC63  F01C         	call	_MPU6050_setFullScaleGyroRange
  1030                           
  1031                           ;MPU6050.c: 65: MPU6050_setFullScaleAccelRange(0x00);
  1032  0038F2  0E00               	movlw	0
  1033  0038F4  EC54  F01C         	call	_MPU6050_setFullScaleAccelRange
  1034                           
  1035                           ;MPU6050.c: 66: MPU6050_setSleepEnabled(0);
  1036  0038F8  0E00               	movlw	0
  1037  0038FA  EC0C  F01C         	call	_MPU6050_setSleepEnabled
  1038  0038FE  0012               	return	
  1039  003900  FFFF               	dw	65535	; errata NOP
  1040  003902                     __end_of_MPU6050_initialize:
  1041                           	opt stack 0
  1042                           tblptru	equ	0xFF8
  1043                           postinc0	equ	0xFEE
  1044                           wreg	equ	0xFE8
  1045                           indf2	equ	0xFDF
  1046                           fsr2h	equ	0xFDA
  1047                           fsr2l	equ	0xFD9
  1048                           status	equ	0xFD8
  1049                           
  1050 ;; *************** function _MPU6050_setSleepEnabled *****************
  1051 ;; Defined at:
  1052 ;;		line 2382 in file "../MPU6050.c"
  1053 ;; Parameters:    Size  Location     Type
  1054 ;;  enabled         1    wreg     unsigned char 
  1055 ;; Auto vars:     Size  Location     Type
  1056 ;;  enabled         1   34[COMRAM] unsigned char 
  1057 ;; Return value:  Size  Location     Type
  1058 ;;		None               void
  1059 ;; Registers used:
  1060 ;;		wreg, fsr2l, fsr2h, status,2, status,0, prodl, prodh, cstack
  1061 ;; Tracked objects:
  1062 ;;		On entry : 0/0
  1063 ;;		On exit  : 0/0
  1064 ;;		Unchanged: 0/0
  1065 ;; Data sizes:     COMRAM   BANK0   BANK1   BANK2   BANK3   BANK4   BANK5
  1066 ;;      Params:         0       0       0       0       0       0       0
  1067 ;;      Locals:         1       0       0       0       0       0       0
  1068 ;;      Temps:          0       0       0       0       0       0       0
  1069 ;;      Totals:         1       0       0       0       0       0       0
  1070 ;;Total ram usage:        1 bytes
  1071 ;; Hardware stack levels used:    1
  1072 ;; Hardware stack levels required when called:    5
  1073 ;; This function calls:
  1074 ;;		_I2Cdev_writeBit
  1075 ;; This function is called by:
  1076 ;;		_MPU6050_initialize
  1077 ;; This function uses a non-reentrant model
  1078 ;;
  1079                           
  1080                           	psect	text6
  1081  003818                     __ptext6:
  1082                           	opt stack 0
  1083  003818                     _MPU6050_setSleepEnabled:
  1084                           	opt stack 23
  1085                           
  1086                           ;incstack = 0
  1087  003818  FFFF               	dw	65535
  1088                           
  1089                           ;MPU6050_setSleepEnabled@enabled stored from wreg
  1090  00381A  6E23               	movwf	MPU6050_setSleepEnabled@enabled,c
  1091                           
  1092                           ;MPU6050.c: 2383: I2Cdev_writeBit(mpu6050.devAddr, 0x6B, 6, enabled);
  1093  00381C  0E6B               	movlw	107
  1094  00381E  6E17               	movwf	I2Cdev_writeBit@regAddr,c
  1095  003820  0E06               	movlw	6
  1096  003822  6E18               	movwf	I2Cdev_writeBit@bitNum,c
  1097  003824  C023  F019         	movff	MPU6050_setSleepEnabled@enabled,I2Cdev_writeBit@data
  1098  003828  5048               	movf	_mpu6050,w,c
  1099  00382A  EC2E  F01E         	call	_I2Cdev_writeBit
  1100  00382E  0012               	return	
  1101  003830  FFFF               	dw	65535	; errata NOP
  1102  003832                     __end_of_MPU6050_setSleepEnabled:
  1103                           	opt stack 0
  1104                           tblptru	equ	0xFF8
  1105                           postinc0	equ	0xFEE
  1106                           wreg	equ	0xFE8
  1107                           indf2	equ	0xFDF
  1108                           fsr2h	equ	0xFDA
  1109                           fsr2l	equ	0xFD9
  1110                           status	equ	0xFD8
  1111                           
  1112 ;; *************** function _I2Cdev_writeBit *****************
  1113 ;; Defined at:
  1114 ;;		line 344 in file "../I2Cdev.c"
  1115 ;; Parameters:    Size  Location     Type
  1116 ;;  devAddr         1    wreg     unsigned char 
  1117 ;;  regAddr         1   22[COMRAM] unsigned char 
  1118 ;;  bitNum          1   23[COMRAM] unsigned char 
  1119 ;;  data            1   24[COMRAM] unsigned char 
  1120 ;; Auto vars:     Size  Location     Type
  1121 ;;  devAddr         1   32[COMRAM] unsigned char 
  1122 ;;  b               1   33[COMRAM] unsigned char 
  1123 ;; Return value:  Size  Location     Type
  1124 ;;                  1    wreg      unsigned char 
  1125 ;; Registers used:
  1126 ;;		wreg, fsr2l, fsr2h, status,2, status,0, prodl, prodh, cstack
  1127 ;; Tracked objects:
  1128 ;;		On entry : 0/0
  1129 ;;		On exit  : 0/0
  1130 ;;		Unchanged: 0/0
  1131 ;; Data sizes:     COMRAM   BANK0   BANK1   BANK2   BANK3   BANK4   BANK5
  1132 ;;      Params:         3       0       0       0       0       0       0
  1133 ;;      Locals:         4       0       0       0       0       0       0
  1134 ;;      Temps:          5       0       0       0       0       0       0
  1135 ;;      Totals:        12       0       0       0       0       0       0
  1136 ;;Total ram usage:       12 bytes
  1137 ;; Hardware stack levels used:    1
  1138 ;; Hardware stack levels required when called:    4
  1139 ;; This function calls:
  1140 ;;		_I2Cdev_readByte
  1141 ;;		_I2Cdev_writeByte
  1142 ;; This function is called by:
  1143 ;;		_MPU6050_setSleepEnabled
  1144 ;;		_MPU6050_setAuxVDDIOLevel
  1145 ;;		_MPU6050_setAccelXSelfTest
  1146 ;;		_MPU6050_setAccelYSelfTest
  1147 ;;		_MPU6050_setAccelZSelfTest
  1148 ;;		_MPU6050_setTempFIFOEnabled
  1149 ;;		_MPU6050_setXGyroFIFOEnabled
  1150 ;;		_MPU6050_setYGyroFIFOEnabled
  1151 ;;		_MPU6050_setZGyroFIFOEnabled
  1152 ;;		_MPU6050_setAccelFIFOEnabled
  1153 ;;		_MPU6050_setSlave2FIFOEnabled
  1154 ;;		_MPU6050_setSlave1FIFOEnabled
  1155 ;;		_MPU6050_setSlave0FIFOEnabled
  1156 ;;		_MPU6050_setMultiMasterEnabled
  1157 ;;		_MPU6050_setWaitForExternalSensorEnabled
  1158 ;;		_MPU6050_setSlave3FIFOEnabled
  1159 ;;		_MPU6050_setSlaveReadWriteTransitionEnabled
  1160 ;;		_MPU6050_setSlaveEnabled
  1161 ;;		_MPU6050_setSlaveWordByteSwap
  1162 ;;		_MPU6050_setSlaveWriteMode
  1163 ;;		_MPU6050_setSlaveWordGroupOffset
  1164 ;;		_MPU6050_setSlave4Enabled
  1165 ;;		_MPU6050_setSlave4InterruptEnabled
  1166 ;;		_MPU6050_setSlave4WriteMode
  1167 ;;		_MPU6050_setInterruptMode
  1168 ;;		_MPU6050_setInterruptDrive
  1169 ;;		_MPU6050_setInterruptLatch
  1170 ;;		_MPU6050_setInterruptLatchClear
  1171 ;;		_MPU6050_setFSyncInterruptLevel
  1172 ;;		_MPU6050_setFSyncInterruptEnabled
  1173 ;;		_MPU6050_setI2CBypassEnabled
  1174 ;;		_MPU6050_setClockOutputEnabled
  1175 ;;		_MPU6050_setIntFreefallEnabled
  1176 ;;		_MPU6050_setIntMotionEnabled
  1177 ;;		_MPU6050_setIntZeroMotionEnabled
  1178 ;;		_MPU6050_setIntFIFOBufferOverflowEnabled
  1179 ;;		_MPU6050_setIntI2CMasterEnabled
  1180 ;;		_MPU6050_setIntDataReadyEnabled
  1181 ;;		_MPU6050_setExternalShadowDelayEnabled
  1182 ;;		_MPU6050_setSlaveDelayEnabled
  1183 ;;		_MPU6050_resetGyroscopePath
  1184 ;;		_MPU6050_resetAccelerometerPath
  1185 ;;		_MPU6050_resetTemperaturePath
  1186 ;;		_MPU6050_setFIFOEnabled
  1187 ;;		_MPU6050_setI2CMasterModeEnabled
  1188 ;;		_MPU6050_switchSPIEnabled
  1189 ;;		_MPU6050_resetFIFO
  1190 ;;		_MPU6050_resetI2CMaster
  1191 ;;		_MPU6050_resetSensors
  1192 ;;		_MPU6050_reset
  1193 ;;		_MPU6050_setWakeCycleEnabled
  1194 ;;		_MPU6050_setTempSensorEnabled
  1195 ;;		_MPU6050_setStandbyXAccelEnabled
  1196 ;;		_MPU6050_setStandbyYAccelEnabled
  1197 ;;		_MPU6050_setStandbyZAccelEnabled
  1198 ;;		_MPU6050_setStandbyXGyroEnabled
  1199 ;;		_MPU6050_setStandbyYGyroEnabled
  1200 ;;		_MPU6050_setStandbyZGyroEnabled
  1201 ;;		_MPU6050_setOTPBankValid
  1202 ;;		_MPU6050_setIntPLLReadyEnabled
  1203 ;;		_MPU6050_setIntDMPEnabled
  1204 ;;		_MPU6050_setDMPEnabled
  1205 ;;		_MPU6050_resetDMP
  1206 ;; This function uses a non-reentrant model
  1207 ;;
  1208                           
  1209                           	psect	text7
  1210  003C5C                     __ptext7:
  1211                           	opt stack 0
  1212  003C5C                     _I2Cdev_writeBit:
  1213                           	opt stack 23
  1214                           
  1215                           ;incstack = 0
  1216  003C5C  FFFF               	dw	65535
  1217                           
  1218                           ;I2Cdev_writeBit@devAddr stored from wreg
  1219  003C5E  6E21               	movwf	I2Cdev_writeBit@devAddr,c
  1220                           
  1221                           ;I2Cdev.c: 345: uint8_t b;
  1222                           ;I2Cdev.c: 346: I2Cdev_readByte(devAddr, regAddr, &b);
  1223  003C60  C017  F013         	movff	I2Cdev_writeBit@regAddr,I2Cdev_readByte@regAddr
  1224  003C64  0E00               	movlw	high I2Cdev_writeBit@b
  1225  003C66  6E15               	movwf	I2Cdev_readByte@data+1,c
  1226  003C68  0E22               	movlw	low I2Cdev_writeBit@b
  1227  003C6A  6E14               	movwf	I2Cdev_readByte@data,c
  1228  003C6C  5021               	movf	I2Cdev_writeBit@devAddr,w,c
  1229  003C6E  EC27  F01C         	call	_I2Cdev_readByte
  1230                           
  1231                           ;I2Cdev.c: 347: b = (data != 0) ? (b | (1 << bitNum)) : (b & ~(1 << bitNum));
  1232  003C72  6619               	tstfsz	I2Cdev_writeBit@data,c
  1233  003C74  D012               	goto	l3650
  1234  003C76  C018  F01A         	movff	I2Cdev_writeBit@bitNum,??_I2Cdev_writeBit
  1235  003C7A  0E01               	movlw	1
  1236  003C7C  6E1B               	movwf	(??_I2Cdev_writeBit+1)& (0+255),c
  1237  003C7E  2A1A               	incf	??_I2Cdev_writeBit,f,c
  1238  003C80  D002               	goto	u1464
  1239  003C82                     u1465:
  1240  003C82  90D8               	bcf	status,0,c
  1241  003C84  361B               	rlcf	??_I2Cdev_writeBit+1,f,c
  1242  003C86                     u1464:
  1243  003C86  2E1A               	decfsz	??_I2Cdev_writeBit,f,c
  1244  003C88  D7FC               	goto	u1465
  1245  003C8A  501B               	movf	??_I2Cdev_writeBit+1,w,c
  1246  003C8C  0AFF               	xorlw	255
  1247  003C8E  1422               	andwf	I2Cdev_writeBit@b,w,c
  1248  003C90  6E1C               	movwf	(??_I2Cdev_writeBit+2)& (0+255),c
  1249  003C92  501C               	movf	??_I2Cdev_writeBit+2,w,c
  1250  003C94  6E1F               	movwf	_I2Cdev_writeBit$411,c
  1251  003C96  6A20               	clrf	_I2Cdev_writeBit$411+1,c
  1252  003C98  D015               	goto	l3652
  1253  003C9A                     l3650:
  1254  003C9A  C018  F01A         	movff	I2Cdev_writeBit@bitNum,??_I2Cdev_writeBit
  1255  003C9E  0E01               	movlw	1
  1256  003CA0  6E1B               	movwf	(??_I2Cdev_writeBit+1)& (0+255),c
  1257  003CA2  6A1C               	clrf	(??_I2Cdev_writeBit+2)& (0+255),c
  1258  003CA4  2A1A               	incf	??_I2Cdev_writeBit,f,c
  1259  003CA6  D003               	goto	u1474
  1260  003CA8                     u1475:
  1261  003CA8  90D8               	bcf	status,0,c
  1262  003CAA  361B               	rlcf	??_I2Cdev_writeBit+1,f,c
  1263  003CAC  361C               	rlcf	??_I2Cdev_writeBit+2,f,c
  1264  003CAE                     u1474:
  1265  003CAE  2E1A               	decfsz	??_I2Cdev_writeBit,f,c
  1266  003CB0  D7FB               	goto	u1475
  1267  003CB2  5022               	movf	I2Cdev_writeBit@b,w,c
  1268  003CB4  6E1D               	movwf	(??_I2Cdev_writeBit+3)& (0+255),c
  1269  003CB6  6A1E               	clrf	(??_I2Cdev_writeBit+4)& (0+255),c
  1270  003CB8  501B               	movf	??_I2Cdev_writeBit+1,w,c
  1271  003CBA  101D               	iorwf	??_I2Cdev_writeBit+3,w,c
  1272  003CBC  6E1F               	movwf	_I2Cdev_writeBit$411,c
  1273  003CBE  501C               	movf	??_I2Cdev_writeBit+2,w,c
  1274  003CC0  101E               	iorwf	??_I2Cdev_writeBit+4,w,c
  1275  003CC2  6E20               	movwf	_I2Cdev_writeBit$411+1,c
  1276  003CC4                     l3652:
  1277  003CC4  C01F  F022         	movff	_I2Cdev_writeBit$411,I2Cdev_writeBit@b
  1278                           
  1279                           ;I2Cdev.c: 348: return I2Cdev_writeByte(devAddr, regAddr, b);
  1280                           ;	Return value of _I2Cdev_writeBit is never used
  1281  003CC8  C017  F00A         	movff	I2Cdev_writeBit@regAddr,I2Cdev_writeByte@regAddr
  1282  003CCC  C022  F00B         	movff	I2Cdev_writeBit@b,I2Cdev_writeByte@data
  1283  003CD0  5021               	movf	I2Cdev_writeBit@devAddr,w,c
  1284  003CD2  EC36  F01C         	call	_I2Cdev_writeByte
  1285  003CD6  0012               	return	
  1286  003CD8  FFFF               	dw	65535	; errata NOP
  1287  003CDA                     __end_of_I2Cdev_writeBit:
  1288                           	opt stack 0
  1289                           tblptru	equ	0xFF8
  1290                           postinc0	equ	0xFEE
  1291                           wreg	equ	0xFE8
  1292                           indf2	equ	0xFDF
  1293                           fsr2h	equ	0xFDA
  1294                           fsr2l	equ	0xFD9
  1295                           status	equ	0xFD8
  1296                           
  1297 ;; *************** function _MPU6050_setFullScaleGyroRange *****************
  1298 ;; Defined at:
  1299 ;;		line 251 in file "../MPU6050.c"
  1300 ;; Parameters:    Size  Location     Type
  1301 ;;  range           1    wreg     unsigned char 
  1302 ;; Auto vars:     Size  Location     Type
  1303 ;;  range           1   32[COMRAM] unsigned char 
  1304 ;; Return value:  Size  Location     Type
  1305 ;;		None               void
  1306 ;; Registers used:
  1307 ;;		wreg, fsr2l, fsr2h, status,2, status,0, prodl, prodh, cstack
  1308 ;; Tracked objects:
  1309 ;;		On entry : 0/0
  1310 ;;		On exit  : 0/0
  1311 ;;		Unchanged: 0/0
  1312 ;; Data sizes:     COMRAM   BANK0   BANK1   BANK2   BANK3   BANK4   BANK5
  1313 ;;      Params:         0       0       0       0       0       0       0
  1314 ;;      Locals:         1       0       0       0       0       0       0
  1315 ;;      Temps:          0       0       0       0       0       0       0
  1316 ;;      Totals:         1       0       0       0       0       0       0
  1317 ;;Total ram usage:        1 bytes
  1318 ;; Hardware stack levels used:    1
  1319 ;; Hardware stack levels required when called:    5
  1320 ;; This function calls:
  1321 ;;		_I2Cdev_writeBits
  1322 ;; This function is called by:
  1323 ;;		_MPU6050_initialize
  1324 ;; This function uses a non-reentrant model
  1325 ;;
  1326                           
  1327                           	psect	text8
  1328  0038C6                     __ptext8:
  1329                           	opt stack 0
  1330  0038C6                     _MPU6050_setFullScaleGyroRange:
  1331                           	opt stack 23
  1332                           
  1333                           ;incstack = 0
  1334  0038C6  FFFF               	dw	65535
  1335                           
  1336                           ;MPU6050_setFullScaleGyroRange@range stored from wreg
  1337  0038C8  6E21               	movwf	MPU6050_setFullScaleGyroRange@range,c
  1338                           
  1339                           ;MPU6050.c: 252: I2Cdev_writeBits(mpu6050.devAddr, 0x1B, 4, 2, range);
  1340  0038CA  0E1B               	movlw	27
  1341  0038CC  6E17               	movwf	I2Cdev_writeBits@regAddr,c
  1342  0038CE  0E04               	movlw	4
  1343  0038D0  6E18               	movwf	I2Cdev_writeBits@bitStart,c
  1344  0038D2  0E02               	movlw	2
  1345  0038D4  6E19               	movwf	I2Cdev_writeBits@length,c
  1346  0038D6  C021  F01A         	movff	MPU6050_setFullScaleGyroRange@range,I2Cdev_writeBits@data
  1347  0038DA  5048               	movf	_mpu6050,w,c
  1348  0038DC  EC6D  F01E         	call	_I2Cdev_writeBits
  1349  0038E0  0012               	return	
  1350  0038E2  FFFF               	dw	65535	; errata NOP
  1351  0038E4                     __end_of_MPU6050_setFullScaleGyroRange:
  1352                           	opt stack 0
  1353                           tblptru	equ	0xFF8
  1354                           postinc0	equ	0xFEE
  1355                           wreg	equ	0xFE8
  1356                           indf2	equ	0xFDF
  1357                           fsr2h	equ	0xFDA
  1358                           fsr2l	equ	0xFD9
  1359                           status	equ	0xFD8
  1360                           
  1361 ;; *************** function _MPU6050_setFullScaleAccelRange *****************
  1362 ;; Defined at:
  1363 ;;		line 327 in file "../MPU6050.c"
  1364 ;; Parameters:    Size  Location     Type
  1365 ;;  range           1    wreg     unsigned char 
  1366 ;; Auto vars:     Size  Location     Type
  1367 ;;  range           1   32[COMRAM] unsigned char 
  1368 ;; Return value:  Size  Location     Type
  1369 ;;		None               void
  1370 ;; Registers used:
  1371 ;;		wreg, fsr2l, fsr2h, status,2, status,0, prodl, prodh, cstack
  1372 ;; Tracked objects:
  1373 ;;		On entry : 0/0
  1374 ;;		On exit  : 0/0
  1375 ;;		Unchanged: 0/0
  1376 ;; Data sizes:     COMRAM   BANK0   BANK1   BANK2   BANK3   BANK4   BANK5
  1377 ;;      Params:         0       0       0       0       0       0       0
  1378 ;;      Locals:         1       0       0       0       0       0       0
  1379 ;;      Temps:          0       0       0       0       0       0       0
  1380 ;;      Totals:         1       0       0       0       0       0       0
  1381 ;;Total ram usage:        1 bytes
  1382 ;; Hardware stack levels used:    1
  1383 ;; Hardware stack levels required when called:    5
  1384 ;; This function calls:
  1385 ;;		_I2Cdev_writeBits
  1386 ;; This function is called by:
  1387 ;;		_MPU6050_initialize
  1388 ;; This function uses a non-reentrant model
  1389 ;;
  1390                           
  1391                           	psect	text9
  1392  0038A8                     __ptext9:
  1393                           	opt stack 0
  1394  0038A8                     _MPU6050_setFullScaleAccelRange:
  1395                           	opt stack 23
  1396                           
  1397                           ;incstack = 0
  1398  0038A8  FFFF               	dw	65535
  1399                           
  1400                           ;MPU6050_setFullScaleAccelRange@range stored from wreg
  1401  0038AA  6E21               	movwf	MPU6050_setFullScaleAccelRange@range,c
  1402                           
  1403                           ;MPU6050.c: 328: I2Cdev_writeBits(mpu6050.devAddr, 0x1C, 4, 2, range);
  1404  0038AC  0E1C               	movlw	28
  1405  0038AE  6E17               	movwf	I2Cdev_writeBits@regAddr,c
  1406  0038B0  0E04               	movlw	4
  1407  0038B2  6E18               	movwf	I2Cdev_writeBits@bitStart,c
  1408  0038B4  0E02               	movlw	2
  1409  0038B6  6E19               	movwf	I2Cdev_writeBits@length,c
  1410  0038B8  C021  F01A         	movff	MPU6050_setFullScaleAccelRange@range,I2Cdev_writeBits@data
  1411  0038BC  5048               	movf	_mpu6050,w,c
  1412  0038BE  EC6D  F01E         	call	_I2Cdev_writeBits
  1413  0038C2  0012               	return	
  1414  0038C4  FFFF               	dw	65535	; errata NOP
  1415  0038C6                     __end_of_MPU6050_setFullScaleAccelRange:
  1416                           	opt stack 0
  1417                           tblptru	equ	0xFF8
  1418                           postinc0	equ	0xFEE
  1419                           wreg	equ	0xFE8
  1420                           indf2	equ	0xFDF
  1421                           fsr2h	equ	0xFDA
  1422                           fsr2l	equ	0xFD9
  1423                           status	equ	0xFD8
  1424                           
  1425 ;; *************** function _MPU6050_setClockSource *****************
  1426 ;; Defined at:
  1427 ;;		line 2475 in file "../MPU6050.c"
  1428 ;; Parameters:    Size  Location     Type
  1429 ;;  source          1    wreg     unsigned char 
  1430 ;; Auto vars:     Size  Location     Type
  1431 ;;  source          1   32[COMRAM] unsigned char 
  1432 ;; Return value:  Size  Location     Type
  1433 ;;		None               void
  1434 ;; Registers used:
  1435 ;;		wreg, fsr2l, fsr2h, status,2, status,0, prodl, prodh, cstack
  1436 ;; Tracked objects:
  1437 ;;		On entry : 0/0
  1438 ;;		On exit  : 0/0
  1439 ;;		Unchanged: 0/0
  1440 ;; Data sizes:     COMRAM   BANK0   BANK1   BANK2   BANK3   BANK4   BANK5
  1441 ;;      Params:         0       0       0       0       0       0       0
  1442 ;;      Locals:         1       0       0       0       0       0       0
  1443 ;;      Temps:          0       0       0       0       0       0       0
  1444 ;;      Totals:         1       0       0       0       0       0       0
  1445 ;;Total ram usage:        1 bytes
  1446 ;; Hardware stack levels used:    1
  1447 ;; Hardware stack levels required when called:    5
  1448 ;; This function calls:
  1449 ;;		_I2Cdev_writeBits
  1450 ;; This function is called by:
  1451 ;;		_MPU6050_initialize
  1452 ;; This function uses a non-reentrant model
  1453 ;;
  1454                           
  1455                           	psect	text10
  1456  00388A                     __ptext10:
  1457                           	opt stack 0
  1458  00388A                     _MPU6050_setClockSource:
  1459                           	opt stack 23
  1460                           
  1461                           ;incstack = 0
  1462  00388A  FFFF               	dw	65535
  1463                           
  1464                           ;MPU6050_setClockSource@source stored from wreg
  1465  00388C  6E21               	movwf	MPU6050_setClockSource@source,c
  1466                           
  1467                           ;MPU6050.c: 2476: I2Cdev_writeBits(mpu6050.devAddr, 0x6B, 2, 3, source);
  1468  00388E  0E6B               	movlw	107
  1469  003890  6E17               	movwf	I2Cdev_writeBits@regAddr,c
  1470  003892  0E02               	movlw	2
  1471  003894  6E18               	movwf	I2Cdev_writeBits@bitStart,c
  1472  003896  0E03               	movlw	3
  1473  003898  6E19               	movwf	I2Cdev_writeBits@length,c
  1474  00389A  C021  F01A         	movff	MPU6050_setClockSource@source,I2Cdev_writeBits@data
  1475  00389E  5048               	movf	_mpu6050,w,c
  1476  0038A0  EC6D  F01E         	call	_I2Cdev_writeBits
  1477  0038A4  0012               	return	
  1478  0038A6  FFFF               	dw	65535	; errata NOP
  1479  0038A8                     __end_of_MPU6050_setClockSource:
  1480                           	opt stack 0
  1481                           tblptru	equ	0xFF8
  1482                           postinc0	equ	0xFEE
  1483                           wreg	equ	0xFE8
  1484                           indf2	equ	0xFDF
  1485                           fsr2h	equ	0xFDA
  1486                           fsr2l	equ	0xFD9
  1487                           status	equ	0xFD8
  1488                           
  1489 ;; *************** function _I2Cdev_writeBits *****************
  1490 ;; Defined at:
  1491 ;;		line 373 in file "../I2Cdev.c"
  1492 ;; Parameters:    Size  Location     Type
  1493 ;;  devAddr         1    wreg     unsigned char 
  1494 ;;  regAddr         1   22[COMRAM] unsigned char 
  1495 ;;  bitStart        1   23[COMRAM] unsigned char 
  1496 ;;  length          1   24[COMRAM] unsigned char 
  1497 ;;  data            1   25[COMRAM] unsigned char 
  1498 ;; Auto vars:     Size  Location     Type
  1499 ;;  devAddr         1   29[COMRAM] unsigned char 
  1500 ;;  mask            1   30[COMRAM] unsigned char 
  1501 ;;  b               1   31[COMRAM] unsigned char 
  1502 ;; Return value:  Size  Location     Type
  1503 ;;                  1    wreg      unsigned char 
  1504 ;; Registers used:
  1505 ;;		wreg, fsr2l, fsr2h, status,2, status,0, prodl, prodh, cstack
  1506 ;; Tracked objects:
  1507 ;;		On entry : 0/0
  1508 ;;		On exit  : 0/0
  1509 ;;		Unchanged: 0/0
  1510 ;; Data sizes:     COMRAM   BANK0   BANK1   BANK2   BANK3   BANK4   BANK5
  1511 ;;      Params:         4       0       0       0       0       0       0
  1512 ;;      Locals:         3       0       0       0       0       0       0
  1513 ;;      Temps:          3       0       0       0       0       0       0
  1514 ;;      Totals:        10       0       0       0       0       0       0
  1515 ;;Total ram usage:       10 bytes
  1516 ;; Hardware stack levels used:    1
  1517 ;; Hardware stack levels required when called:    4
  1518 ;; This function calls:
  1519 ;;		_I2Cdev_readByte
  1520 ;;		_I2Cdev_writeByte
  1521 ;; This function is called by:
  1522 ;;		_MPU6050_setFullScaleGyroRange
  1523 ;;		_MPU6050_setFullScaleAccelRange
  1524 ;;		_MPU6050_setClockSource
  1525 ;;		_MPU6050_setExternalFrameSync
  1526 ;;		_MPU6050_setDLPFMode
  1527 ;;		_MPU6050_setDHPFMode
  1528 ;;		_MPU6050_setMasterClockSpeed
  1529 ;;		_MPU6050_setSlaveDataLength
  1530 ;;		_MPU6050_setSlave4MasterDelay
  1531 ;;		_MPU6050_setAccelerometerPowerOnDelay
  1532 ;;		_MPU6050_setFreefallDetectionCounterDecrement
  1533 ;;		_MPU6050_setMotionDetectionCounterDecrement
  1534 ;;		_MPU6050_setWakeFrequency
  1535 ;;		_MPU6050_setDeviceID
  1536 ;;		_MPU6050_setXGyroOffsetTC
  1537 ;;		_MPU6050_setYGyroOffsetTC
  1538 ;;		_MPU6050_setZGyroOffsetTC
  1539 ;; This function uses a non-reentrant model
  1540 ;;
  1541                           
  1542                           	psect	text11
  1543  003CDA                     __ptext11:
  1544                           	opt stack 0
  1545  003CDA                     _I2Cdev_writeBits:
  1546                           	opt stack 23
  1547                           
  1548                           ;incstack = 0
  1549  003CDA  FFFF               	dw	65535
  1550                           
  1551                           ;I2Cdev_writeBits@devAddr stored from wreg
  1552  003CDC  6E1E               	movwf	I2Cdev_writeBits@devAddr,c
  1553                           
  1554                           ;I2Cdev.c: 381: uint8_t b;
  1555                           ;I2Cdev.c: 382: if (I2Cdev_readByte(devAddr, regAddr, &b) != 0) {
  1556  003CDE  C017  F013         	movff	I2Cdev_writeBits@regAddr,I2Cdev_readByte@regAddr
  1557  003CE2  0E00               	movlw	high I2Cdev_writeBits@b
  1558  003CE4  6E15               	movwf	I2Cdev_readByte@data+1,c
  1559  003CE6  0E20               	movlw	low I2Cdev_writeBits@b
  1560  003CE8  6E14               	movwf	I2Cdev_readByte@data,c
  1561  003CEA  501E               	movf	I2Cdev_writeBits@devAddr,w,c
  1562  003CEC  EC27  F01C         	call	_I2Cdev_readByte
  1563  003CF0  0900               	iorlw	0
  1564  003CF2  B4D8               	btfsc	status,2,c
  1565  003CF4  D035               	goto	l235
  1566                           
  1567                           ;I2Cdev.c: 383: uint8_t mask = ((1 << length) - 1) << (bitStart - length + 1);
  1568  003CF6  5019               	movf	I2Cdev_writeBits@length,w,c
  1569  003CF8  0800               	sublw	0
  1570  003CFA  2418               	addwf	I2Cdev_writeBits@bitStart,w,c
  1571  003CFC  6E1B               	movwf	??_I2Cdev_writeBits& (0+255),c
  1572  003CFE  0E01               	movlw	1
  1573  003D00  261B               	addwf	??_I2Cdev_writeBits,f,c
  1574  003D02  C019  F01C         	movff	I2Cdev_writeBits@length,??_I2Cdev_writeBits+1
  1575  003D06  0E01               	movlw	1
  1576  003D08  6E1D               	movwf	(??_I2Cdev_writeBits+2)& (0+255),c
  1577  003D0A  2A1C               	incf	??_I2Cdev_writeBits+1,f,c
  1578  003D0C  D002               	goto	u1494
  1579  003D0E                     u1495:
  1580  003D0E  90D8               	bcf	status,0,c
  1581  003D10  361D               	rlcf	??_I2Cdev_writeBits+2,f,c
  1582  003D12                     u1494:
  1583  003D12  2E1C               	decfsz	??_I2Cdev_writeBits+1,f,c
  1584  003D14  D7FC               	goto	u1495
  1585  003D16  0EFF               	movlw	255
  1586  003D18  261D               	addwf	??_I2Cdev_writeBits+2,f,c
  1587  003D1A  2A1B               	incf	??_I2Cdev_writeBits,f,c
  1588  003D1C  D002               	goto	u1504
  1589  003D1E                     u1505:
  1590  003D1E  90D8               	bcf	status,0,c
  1591  003D20  361D               	rlcf	??_I2Cdev_writeBits+2,f,c
  1592  003D22                     u1504:
  1593  003D22  2E1B               	decfsz	??_I2Cdev_writeBits,f,c
  1594  003D24  D7FC               	goto	u1505
  1595  003D26  501D               	movf	??_I2Cdev_writeBits+2,w,c
  1596  003D28  6E1F               	movwf	I2Cdev_writeBits@mask,c
  1597                           
  1598                           ;I2Cdev.c: 384: data <<= (bitStart - length + 1);
  1599  003D2A  5019               	movf	I2Cdev_writeBits@length,w,c
  1600  003D2C  0800               	sublw	0
  1601  003D2E  2418               	addwf	I2Cdev_writeBits@bitStart,w,c
  1602  003D30  6E1B               	movwf	??_I2Cdev_writeBits& (0+255),c
  1603  003D32  0E01               	movlw	1
  1604  003D34  261B               	addwf	??_I2Cdev_writeBits,f,c
  1605  003D36  281B               	incf	??_I2Cdev_writeBits,w,c
  1606  003D38  6E1C               	movwf	(??_I2Cdev_writeBits+1)& (0+255),c
  1607  003D3A  D002               	goto	u1510
  1608  003D3C                     u1515:
  1609  003D3C  90D8               	bcf	status,0,c
  1610  003D3E  361A               	rlcf	I2Cdev_writeBits@data,f,c
  1611  003D40                     u1510:
  1612  003D40  2E1C               	decfsz	(??_I2Cdev_writeBits+1)& (0+255),f,c
  1613  003D42  D7FC               	goto	u1515
  1614                           
  1615                           ;I2Cdev.c: 385: data &= mask;
  1616  003D44  501F               	movf	I2Cdev_writeBits@mask,w,c
  1617  003D46  161A               	andwf	I2Cdev_writeBits@data,f,c
  1618                           
  1619                           ;I2Cdev.c: 386: b &= ~(mask);
  1620  003D48  501F               	movf	I2Cdev_writeBits@mask,w,c
  1621  003D4A  0AFF               	xorlw	255
  1622  003D4C  1620               	andwf	I2Cdev_writeBits@b,f,c
  1623                           
  1624                           ;I2Cdev.c: 387: b |= data;
  1625  003D4E  501A               	movf	I2Cdev_writeBits@data,w,c
  1626  003D50  1220               	iorwf	I2Cdev_writeBits@b,f,c
  1627                           
  1628                           ;I2Cdev.c: 388: return I2Cdev_writeByte(devAddr, regAddr, b);
  1629                           ;	Return value of _I2Cdev_writeBits is never used
  1630  003D52  C017  F00A         	movff	I2Cdev_writeBits@regAddr,I2Cdev_writeByte@regAddr
  1631  003D56  C020  F00B         	movff	I2Cdev_writeBits@b,I2Cdev_writeByte@data
  1632  003D5A  501E               	movf	I2Cdev_writeBits@devAddr,w,c
  1633  003D5C  EC36  F01C         	call	_I2Cdev_writeByte
  1634  003D60                     l235:
  1635  003D60  0012               	return	
  1636  003D62  FFFF               	dw	65535	; errata NOP
  1637  003D64                     __end_of_I2Cdev_writeBits:
  1638                           	opt stack 0
  1639                           tblptru	equ	0xFF8
  1640                           postinc0	equ	0xFEE
  1641                           wreg	equ	0xFE8
  1642                           indf2	equ	0xFDF
  1643                           fsr2h	equ	0xFDA
  1644                           fsr2l	equ	0xFD9
  1645                           status	equ	0xFD8
  1646                           
  1647 ;; *************** function _I2Cdev_writeByte *****************
  1648 ;; Defined at:
  1649 ;;		line 286 in file "../I2Cdev.c"
  1650 ;; Parameters:    Size  Location     Type
  1651 ;;  devAddr         1    wreg     unsigned char 
  1652 ;;  regAddr         1    9[COMRAM] unsigned char 
  1653 ;;  data            1   10[COMRAM] unsigned char 
  1654 ;; Auto vars:     Size  Location     Type
  1655 ;;  devAddr         1   11[COMRAM] unsigned char 
  1656 ;; Return value:  Size  Location     Type
  1657 ;;                  1    wreg      unsigned char 
  1658 ;; Registers used:
  1659 ;;		wreg, fsr2l, fsr2h, status,2, status,0, prodl, prodh, cstack
  1660 ;; Tracked objects:
  1661 ;;		On entry : 0/0
  1662 ;;		On exit  : 0/0
  1663 ;;		Unchanged: 0/0
  1664 ;; Data sizes:     COMRAM   BANK0   BANK1   BANK2   BANK3   BANK4   BANK5
  1665 ;;      Params:         2       0       0       0       0       0       0
  1666 ;;      Locals:         1       0       0       0       0       0       0
  1667 ;;      Temps:          0       0       0       0       0       0       0
  1668 ;;      Totals:         3       0       0       0       0       0       0
  1669 ;;Total ram usage:        3 bytes
  1670 ;; Hardware stack levels used:    1
  1671 ;; Hardware stack levels required when called:    3
  1672 ;; This function calls:
  1673 ;;		_I2Cdev_writeBytes
  1674 ;; This function is called by:
  1675 ;;		_I2Cdev_writeBit
  1676 ;;		_I2Cdev_writeBits
  1677 ;;		_MPU6050_setRate
  1678 ;;		_MPU6050_setFreefallDetectionThreshold
  1679 ;;		_MPU6050_setFreefallDetectionDuration
  1680 ;;		_MPU6050_setMotionDetectionThreshold
  1681 ;;		_MPU6050_setMotionDetectionDuration
  1682 ;;		_MPU6050_setZeroMotionDetectionThreshold
  1683 ;;		_MPU6050_setZeroMotionDetectionDuration
  1684 ;;		_MPU6050_setSlaveAddress
  1685 ;;		_MPU6050_setSlaveRegister
  1686 ;;		_MPU6050_setSlave4Address
  1687 ;;		_MPU6050_setSlave4Register
  1688 ;;		_MPU6050_setSlave4OutputByte
  1689 ;;		_MPU6050_setIntEnabled
  1690 ;;		_MPU6050_setSlaveOutputByte
  1691 ;;		_MPU6050_setFIFOByte
  1692 ;;		_MPU6050_setXFineGain
  1693 ;;		_MPU6050_setYFineGain
  1694 ;;		_MPU6050_setZFineGain
  1695 ;;		_MPU6050_setMemoryBank
  1696 ;;		_MPU6050_setMemoryStartAddress
  1697 ;;		_MPU6050_writeMemoryByte
  1698 ;;		_MPU6050_setDMPConfig1
  1699 ;;		_MPU6050_setDMPConfig2
  1700 ;; This function uses a non-reentrant model
  1701 ;;
  1702                           
  1703                           	psect	text12
  1704  00386C                     __ptext12:
  1705                           	opt stack 0
  1706  00386C                     _I2Cdev_writeByte:
  1707                           	opt stack 23
  1708                           
  1709                           ;incstack = 0
  1710  00386C  FFFF               	dw	65535
  1711                           
  1712                           ;I2Cdev_writeByte@devAddr stored from wreg
  1713  00386E  6E0C               	movwf	I2Cdev_writeByte@devAddr,c
  1714                           
  1715                           ;I2Cdev.c: 287: return I2Cdev_writeBytes(devAddr, regAddr, 1, &data);
  1716  003870  C00A  F004         	movff	I2Cdev_writeByte@regAddr,I2Cdev_writeBytes@regAddr
  1717  003874  0E01               	movlw	1
  1718  003876  6E05               	movwf	I2Cdev_writeBytes@length,c
  1719  003878  0E00               	movlw	high I2Cdev_writeByte@data
  1720  00387A  6E07               	movwf	I2Cdev_writeBytes@data+1,c
  1721  00387C  0E0B               	movlw	low I2Cdev_writeByte@data
  1722  00387E  6E06               	movwf	I2Cdev_writeBytes@data,c
  1723  003880  500C               	movf	I2Cdev_writeByte@devAddr,w,c
  1724  003882  EC2A  F01D         	call	_I2Cdev_writeBytes
  1725  003886  0012               	return	
  1726  003888  FFFF               	dw	65535	; errata NOP
  1727  00388A                     __end_of_I2Cdev_writeByte:
  1728                           	opt stack 0
  1729                           tblptru	equ	0xFF8
  1730                           postinc0	equ	0xFEE
  1731                           wreg	equ	0xFE8
  1732                           indf2	equ	0xFDF
  1733                           fsr2h	equ	0xFDA
  1734                           fsr2l	equ	0xFD9
  1735                           status	equ	0xFD8
  1736                           
  1737 ;; *************** function _I2Cdev_writeBytes *****************
  1738 ;; Defined at:
  1739 ;;		line 254 in file "../I2Cdev.c"
  1740 ;; Parameters:    Size  Location     Type
  1741 ;;  devAddr         1    wreg     unsigned char 
  1742 ;;  regAddr         1    3[COMRAM] unsigned char 
  1743 ;;  length          1    4[COMRAM] unsigned char 
  1744 ;;  data            2    5[COMRAM] PTR unsigned char 
  1745 ;;		 -> NULL(0), I2Cdev_writeByte@data(1), 
  1746 ;; Auto vars:     Size  Location     Type
  1747 ;;  devAddr         1    7[COMRAM] unsigned char 
  1748 ;;  i               1    8[COMRAM] unsigned char 
  1749 ;; Return value:  Size  Location     Type
  1750 ;;                  1    wreg      unsigned char 
  1751 ;; Registers used:
  1752 ;;		wreg, fsr2l, fsr2h, status,2, status,0, prodl, prodh, cstack
  1753 ;; Tracked objects:
  1754 ;;		On entry : 0/0
  1755 ;;		On exit  : 0/0
  1756 ;;		Unchanged: 0/0
  1757 ;; Data sizes:     COMRAM   BANK0   BANK1   BANK2   BANK3   BANK4   BANK5
  1758 ;;      Params:         4       0       0       0       0       0       0
  1759 ;;      Locals:         2       0       0       0       0       0       0
  1760 ;;      Temps:          0       0       0       0       0       0       0
  1761 ;;      Totals:         6       0       0       0       0       0       0
  1762 ;;Total ram usage:        6 bytes
  1763 ;; Hardware stack levels used:    1
  1764 ;; Hardware stack levels required when called:    2
  1765 ;; This function calls:
  1766 ;;		_IdleI2C
  1767 ;;		_WriteI2C
  1768 ;; This function is called by:
  1769 ;;		_I2Cdev_writeByte
  1770 ;;		_MS_5803_resetSensor
  1771 ;;		_MS_5803_ADC
  1772 ;; This function uses a non-reentrant model
  1773 ;;
  1774                           
  1775                           	psect	text13
  1776  003A54                     __ptext13:
  1777                           	opt stack 0
  1778  003A54                     _I2Cdev_writeBytes:
  1779                           	opt stack 23
  1780                           
  1781                           ;incstack = 0
  1782  003A54  FFFF               	dw	65535
  1783                           
  1784                           ;I2Cdev_writeBytes@devAddr stored from wreg
  1785  003A56  6E08               	movwf	I2Cdev_writeBytes@devAddr,c
  1786                           
  1787                           ;I2Cdev.c: 256: IdleI2C();
  1788  003A58  ECE1  F01B         	call	_IdleI2C	;wreg free
  1789                           
  1790                           ;I2Cdev.c: 257: SSPCON2bits.SEN=1;while(SSPCON2bits.SEN);
  1791  003A5C  80C5               	bsf	4037,0,c	;volatile
  1792  003A5E                     l190:
  1793  003A5E  B0C5               	btfsc	4037,0,c	;volatile
  1794  003A60  D7FE               	goto	l190
  1795                           
  1796                           ;I2Cdev.c: 260: IdleI2C();
  1797  003A62  ECE1  F01B         	call	_IdleI2C	;wreg free
  1798                           
  1799                           ;I2Cdev.c: 261: WriteI2C(devAddr << 1 | 0x00);
  1800  003A66  5008               	movf	I2Cdev_writeBytes@devAddr,w,c
  1801  003A68  2408               	addwf	I2Cdev_writeBytes@devAddr,w,c
  1802  003A6A  EC89  F01D         	call	_WriteI2C
  1803                           
  1804                           ;I2Cdev.c: 264: IdleI2C();
  1805  003A6E  ECE1  F01B         	call	_IdleI2C	;wreg free
  1806                           
  1807                           ;I2Cdev.c: 265: WriteI2C(regAddr);
  1808  003A72  5004               	movf	I2Cdev_writeBytes@regAddr,w,c
  1809  003A74  EC89  F01D         	call	_WriteI2C
  1810                           
  1811                           ;I2Cdev.c: 267: for (uint8_t i = 0; i < length; i++) {
  1812  003A78  0E00               	movlw	0
  1813  003A7A  6E09               	movwf	I2Cdev_writeBytes@i,c
  1814  003A7C  D00E               	goto	l3626
  1815  003A7E                     l3620:
  1816                           
  1817                           ;I2Cdev.c: 269: IdleI2C();
  1818  003A7E  ECE1  F01B         	call	_IdleI2C	;wreg free
  1819                           
  1820                           ;I2Cdev.c: 270: WriteI2C(data[i]);
  1821  003A82  5009               	movf	I2Cdev_writeBytes@i,w,c
  1822  003A84  0D01               	mullw	1
  1823  003A86  50F3               	movf	prodl,w,c
  1824  003A88  2406               	addwf	I2Cdev_writeBytes@data,w,c
  1825  003A8A  6ED9               	movwf	fsr2l,c
  1826  003A8C  50F4               	movf	prodh,w,c
  1827  003A8E  2007               	addwfc	I2Cdev_writeBytes@data+1,w,c
  1828  003A90  6EDA               	movwf	fsr2h,c
  1829  003A92  50DF               	movf	indf2,w,c
  1830  003A94  EC89  F01D         	call	_WriteI2C
  1831  003A98  2A09               	incf	I2Cdev_writeBytes@i,f,c
  1832  003A9A                     l3626:
  1833  003A9A  5005               	movf	I2Cdev_writeBytes@length,w,c
  1834  003A9C  5C09               	subwf	I2Cdev_writeBytes@i,w,c
  1835  003A9E  A0D8               	btfss	status,0,c
  1836  003AA0  D7EE               	goto	l3620
  1837                           
  1838                           ;I2Cdev.c: 271: }
  1839                           ;I2Cdev.c: 274: IdleI2C();
  1840  003AA2  ECE1  F01B         	call	_IdleI2C	;wreg free
  1841                           
  1842                           ;I2Cdev.c: 275: SSPCON2bits.PEN=1;while(SSPCON2bits.PEN);
  1843  003AA6  84C5               	bsf	4037,2,c	;volatile
  1844  003AA8                     l196:
  1845  003AA8  B4C5               	btfsc	4037,2,c	;volatile
  1846  003AAA  D7FE               	goto	l196
  1847                           
  1848                           ;I2Cdev.c: 277: return 1;
  1849  003AAC  0E01               	movlw	1
  1850  003AAE  0012               	return	
  1851  003AB0  FFFF               	dw	65535	; errata NOP
  1852  003AB2                     __end_of_I2Cdev_writeBytes:
  1853                           	opt stack 0
  1854                           tblptru	equ	0xFF8
  1855                           prodh	equ	0xFF4
  1856                           prodl	equ	0xFF3
  1857                           postinc0	equ	0xFEE
  1858                           wreg	equ	0xFE8
  1859                           indf2	equ	0xFDF
  1860                           fsr2h	equ	0xFDA
  1861                           fsr2l	equ	0xFD9
  1862                           status	equ	0xFD8
  1863                           
  1864 ;; *************** function _I2Cdev_readByte *****************
  1865 ;; Defined at:
  1866 ;;		line 95 in file "../I2Cdev.c"
  1867 ;; Parameters:    Size  Location     Type
  1868 ;;  devAddr         1    wreg     unsigned char 
  1869 ;;  regAddr         1   18[COMRAM] unsigned char 
  1870 ;;  data            2   19[COMRAM] PTR unsigned char 
  1871 ;;		 -> mpu6050(15), I2Cdev_writeBits@b(1), I2Cdev_writeBit@b(1), I2Cdev_readBits@b(1), 
  1872 ;;		 -> I2Cdev_readBit@b(1), 
  1873 ;; Auto vars:     Size  Location     Type
  1874 ;;  devAddr         1   21[COMRAM] unsigned char 
  1875 ;; Return value:  Size  Location     Type
  1876 ;;                  1    wreg      char 
  1877 ;; Registers used:
  1878 ;;		wreg, fsr2l, fsr2h, status,2, status,0, prodl, prodh, cstack
  1879 ;; Tracked objects:
  1880 ;;		On entry : 0/0
  1881 ;;		On exit  : 0/0
  1882 ;;		Unchanged: 0/0
  1883 ;; Data sizes:     COMRAM   BANK0   BANK1   BANK2   BANK3   BANK4   BANK5
  1884 ;;      Params:         3       0       0       0       0       0       0
  1885 ;;      Locals:         1       0       0       0       0       0       0
  1886 ;;      Temps:          0       0       0       0       0       0       0
  1887 ;;      Totals:         4       0       0       0       0       0       0
  1888 ;;Total ram usage:        4 bytes
  1889 ;; Hardware stack levels used:    1
  1890 ;; Hardware stack levels required when called:    3
  1891 ;; This function calls:
  1892 ;;		_I2Cdev_readBytes
  1893 ;; This function is called by:
  1894 ;;		_I2Cdev_writeBit
  1895 ;;		_I2Cdev_writeBits
  1896 ;;		_I2Cdev_readBit
  1897 ;;		_I2Cdev_readBits
  1898 ;;		_MPU6050_getRate
  1899 ;;		_MPU6050_getFreefallDetectionThreshold
  1900 ;;		_MPU6050_getFreefallDetectionDuration
  1901 ;;		_MPU6050_getMotionDetectionThreshold
  1902 ;;		_MPU6050_getMotionDetectionDuration
  1903 ;;		_MPU6050_getZeroMotionDetectionThreshold
  1904 ;;		_MPU6050_getZeroMotionDetectionDuration
  1905 ;;		_MPU6050_getSlaveAddress
  1906 ;;		_MPU6050_getSlaveRegister
  1907 ;;		_MPU6050_getSlave4Address
  1908 ;;		_MPU6050_getSlave4Register
  1909 ;;		_MPU6050_getSlate4InputByte
  1910 ;;		_MPU6050_getIntEnabled
  1911 ;;		_MPU6050_getIntStatus
  1912 ;;		_MPU6050_getExternalSensorByte
  1913 ;;		_MPU6050_getFIFOByte
  1914 ;;		_MPU6050_getXFineGain
  1915 ;;		_MPU6050_getYFineGain
  1916 ;;		_MPU6050_getZFineGain
  1917 ;;		_MPU6050_readMemoryByte
  1918 ;;		_MPU6050_getDMPConfig1
  1919 ;;		_MPU6050_getDMPConfig2
  1920 ;; This function uses a non-reentrant model
  1921 ;;
  1922                           
  1923                           	psect	text14
  1924  00384E                     __ptext14:
  1925                           	opt stack 0
  1926  00384E                     _I2Cdev_readByte:
  1927                           	opt stack 23
  1928                           
  1929                           ;incstack = 0
  1930  00384E  FFFF               	dw	65535
  1931                           
  1932                           ;I2Cdev_readByte@devAddr stored from wreg
  1933  003850  6E16               	movwf	I2Cdev_readByte@devAddr,c
  1934                           
  1935                           ;I2Cdev.c: 96: return I2Cdev_readBytes(devAddr, regAddr, 1, data);
  1936  003852  C013  F007         	movff	I2Cdev_readByte@regAddr,I2Cdev_readBytes@regAddr
  1937  003856  0E01               	movlw	1
  1938  003858  6E08               	movwf	I2Cdev_readBytes@length,c
  1939  00385A  C015  F00A         	movff	I2Cdev_readByte@data+1,I2Cdev_readBytes@data+1
  1940  00385E  C014  F009         	movff	I2Cdev_readByte@data,I2Cdev_readBytes@data
  1941  003862  5016               	movf	I2Cdev_readByte@devAddr,w,c
  1942  003864  EC0F  F01F         	call	_I2Cdev_readBytes
  1943  003868  0012               	return	
  1944  00386A  FFFF               	dw	65535	; errata NOP
  1945  00386C                     __end_of_I2Cdev_readByte:
  1946                           	opt stack 0
  1947                           tblptru	equ	0xFF8
  1948                           prodh	equ	0xFF4
  1949                           prodl	equ	0xFF3
  1950                           postinc0	equ	0xFEE
  1951                           wreg	equ	0xFE8
  1952                           indf2	equ	0xFDF
  1953                           fsr2h	equ	0xFDA
  1954                           fsr2l	equ	0xFD9
  1955                           status	equ	0xFD8
  1956                           
  1957 ;; *************** function _MPU6050 *****************
  1958 ;; Defined at:
  1959 ;;		line 51 in file "../MPU6050.c"
  1960 ;; Parameters:    Size  Location     Type
  1961 ;;  address         1    wreg     unsigned char 
  1962 ;; Auto vars:     Size  Location     Type
  1963 ;;  address         1    0[COMRAM] unsigned char 
  1964 ;; Return value:  Size  Location     Type
  1965 ;;		None               void
  1966 ;; Registers used:
  1967 ;;		wreg
  1968 ;; Tracked objects:
  1969 ;;		On entry : 0/0
  1970 ;;		On exit  : 0/0
  1971 ;;		Unchanged: 0/0
  1972 ;; Data sizes:     COMRAM   BANK0   BANK1   BANK2   BANK3   BANK4   BANK5
  1973 ;;      Params:         0       0       0       0       0       0       0
  1974 ;;      Locals:         1       0       0       0       0       0       0
  1975 ;;      Temps:          0       0       0       0       0       0       0
  1976 ;;      Totals:         1       0       0       0       0       0       0
  1977 ;;Total ram usage:        1 bytes
  1978 ;; Hardware stack levels used:    1
  1979 ;; This function calls:
  1980 ;;		Nothing
  1981 ;; This function is called by:
  1982 ;;		_initMPU6050
  1983 ;; This function uses a non-reentrant model
  1984 ;;
  1985                           
  1986                           	psect	text15
  1987  0037B6                     __ptext15:
  1988                           	opt stack 0
  1989  0037B6                     _MPU6050:
  1990                           	opt stack 29
  1991                           
  1992                           ;incstack = 0
  1993  0037B6  FFFF               	dw	65535
  1994                           
  1995                           ;MPU6050@address stored from wreg
  1996  0037B8  6E01               	movwf	MPU6050@address,c
  1997                           
  1998                           ;MPU6050.c: 52: mpu6050.devAddr = address;
  1999  0037BA  C001  F048         	movff	MPU6050@address,_mpu6050
  2000  0037BE  0012               	return	
  2001  0037C0  FFFF               	dw	65535	; errata NOP
  2002  0037C2                     __end_of_MPU6050:
  2003                           	opt stack 0
  2004                           tblptru	equ	0xFF8
  2005                           prodh	equ	0xFF4
  2006                           prodl	equ	0xFF3
  2007                           postinc0	equ	0xFEE
  2008                           wreg	equ	0xFE8
  2009                           indf2	equ	0xFDF
  2010                           fsr2h	equ	0xFDA
  2011                           fsr2l	equ	0xFD9
  2012                           status	equ	0xFD8
  2013                           
  2014 ;; *************** function _initI2C_USART *****************
  2015 ;; Defined at:
  2016 ;;		line 222 in file "../pic18f458_badgerloop.c"
  2017 ;; Parameters:    Size  Location     Type
  2018 ;;		None
  2019 ;; Auto vars:     Size  Location     Type
  2020 ;;		None
  2021 ;; Return value:  Size  Location     Type
  2022 ;;		None               void
  2023 ;; Registers used:
  2024 ;;		wreg, status,2, status,0, cstack
  2025 ;; Tracked objects:
  2026 ;;		On entry : 0/0
  2027 ;;		On exit  : 0/0
  2028 ;;		Unchanged: 0/0
  2029 ;; Data sizes:     COMRAM   BANK0   BANK1   BANK2   BANK3   BANK4   BANK5
  2030 ;;      Params:         0       0       0       0       0       0       0
  2031 ;;      Locals:         0       0       0       0       0       0       0
  2032 ;;      Temps:          0       0       0       0       0       0       0
  2033 ;;      Totals:         0       0       0       0       0       0       0
  2034 ;;Total ram usage:        0 bytes
  2035 ;; Hardware stack levels used:    1
  2036 ;; Hardware stack levels required when called:    1
  2037 ;; This function calls:
  2038 ;;		_Delay10KTCYx
  2039 ;;		_OpenI2C
  2040 ;;		_OpenUSART
  2041 ;; This function is called by:
  2042 ;;		_main
  2043 ;; This function uses a non-reentrant model
  2044 ;;
  2045                           
  2046                           	psect	text16
  2047  0039E6                     __ptext16:
  2048                           	opt stack 0
  2049  0039E6                     _initI2C_USART:
  2050                           	opt stack 29
  2051                           
  2052                           ;incstack = 0
  2053  0039E6  FFFF               	dw	65535
  2054                           
  2055                           ;pic18f458_badgerloop.c: 224: TRISCbits.RC6 = 0;
  2056  0039E8  9C94               	bcf	3988,6,c	;volatile
  2057                           
  2058                           ;pic18f458_badgerloop.c: 225: TRISCbits.RC7 = 1;
  2059  0039EA  8E94               	bsf	3988,7,c	;volatile
  2060                           
  2061                           ;pic18f458_badgerloop.c: 231: OpenUSART (0b01111111 &
  2062                           ;pic18f458_badgerloop.c: 232: 0b10111111 &
  2063                           ;pic18f458_badgerloop.c: 233: 0b11111110 &
  2064                           ;pic18f458_badgerloop.c: 234: 0b11111101 &
  2065                           ;pic18f458_badgerloop.c: 235: 0b11111111 &
  2066                           ;pic18f458_badgerloop.c: 236: 0b11111111, 64);
  2067  0039EC  0E00               	movlw	0
  2068  0039EE  6E02               	movwf	OpenUSART@spbrg+1,c
  2069  0039F0  0E40               	movlw	64
  2070  0039F2  6E01               	movwf	OpenUSART@spbrg,c
  2071  0039F4  0E3C               	movlw	60
  2072  0039F6  EC59  F01D         	call	_OpenUSART
  2073                           
  2074                           ;pic18f458_badgerloop.c: 239: OpenI2C(0b00001000, 0b10000000);
  2075  0039FA  0E80               	movlw	128
  2076  0039FC  6E01               	movwf	OpenI2C@slew,c
  2077  0039FE  0E08               	movlw	8
  2078  003A00  EC91  F01C         	call	_OpenI2C
  2079                           
  2080                           ;pic18f458_badgerloop.c: 240: SSPADD = ( ( 20000000 / ( 4 * 400000 ) ) - 1 );
  2081  003A04  0E0B               	movlw	11
  2082  003A06  6EC8               	movwf	4040,c	;volatile
  2083                           
  2084                           ;pic18f458_badgerloop.c: 243: Delay10KTCYx(50);
  2085  003A08  0E32               	movlw	50
  2086  003A0A  EC19  F01C         	call	_Delay10KTCYx
  2087  003A0E  0012               	return	
  2088  003A10  FFFF               	dw	65535	; errata NOP
  2089  003A12                     __end_of_initI2C_USART:
  2090                           	opt stack 0
  2091                           tblptru	equ	0xFF8
  2092                           prodh	equ	0xFF4
  2093                           prodl	equ	0xFF3
  2094                           postinc0	equ	0xFEE
  2095                           wreg	equ	0xFE8
  2096                           indf2	equ	0xFDF
  2097                           fsr2h	equ	0xFDA
  2098                           fsr2l	equ	0xFD9
  2099                           status	equ	0xFD8
  2100                           
  2101 ;; *************** function _OpenUSART *****************
  2102 ;; Defined at:
  2103 ;;		line 21 in file "/Applications/microchip/xc8/v1.32/sources/pic18/plib/USART/uopen.c"
  2104 ;; Parameters:    Size  Location     Type
  2105 ;;  config          1    wreg     unsigned char 
  2106 ;;  spbrg           2    0[COMRAM] unsigned int 
  2107 ;; Auto vars:     Size  Location     Type
  2108 ;;  config          1    2[COMRAM] unsigned char 
  2109 ;; Return value:  Size  Location     Type
  2110 ;;		None               void
  2111 ;; Registers used:
  2112 ;;		wreg, status,2
  2113 ;; Tracked objects:
  2114 ;;		On entry : 0/0
  2115 ;;		On exit  : 0/0
  2116 ;;		Unchanged: 0/0
  2117 ;; Data sizes:     COMRAM   BANK0   BANK1   BANK2   BANK3   BANK4   BANK5
  2118 ;;      Params:         2       0       0       0       0       0       0
  2119 ;;      Locals:         1       0       0       0       0       0       0
  2120 ;;      Temps:          0       0       0       0       0       0       0
  2121 ;;      Totals:         3       0       0       0       0       0       0
  2122 ;;Total ram usage:        3 bytes
  2123 ;; Hardware stack levels used:    1
  2124 ;; This function calls:
  2125 ;;		Nothing
  2126 ;; This function is called by:
  2127 ;;		_initI2C_USART
  2128 ;; This function uses a non-reentrant model
  2129 ;;
  2130                           
  2131                           	psect	text17
  2132  003AB2                     __ptext17:
  2133                           	opt stack 0
  2134  003AB2                     _OpenUSART:
  2135                           	opt stack 29
  2136                           
  2137                           ;incstack = 0
  2138  003AB2  FFFF               	dw	65535
  2139                           
  2140                           ;OpenUSART@config stored from wreg
  2141  003AB4  6E03               	movwf	OpenUSART@config,c
  2142  003AB6  0E00               	movlw	0
  2143  003AB8  6EAC               	movwf	4012,c	;volatile
  2144  003ABA  0E00               	movlw	0
  2145  003ABC  6EAB               	movwf	4011,c	;volatile
  2146  003ABE  B003               	btfsc	OpenUSART@config,0,c
  2147  003AC0  88AC               	bsf	4012,4,c	;volatile
  2148  003AC2  A203               	btfss	OpenUSART@config,1,c
  2149  003AC4  D002               	goto	l2224
  2150  003AC6  8CAC               	bsf	4012,6,c	;volatile
  2151  003AC8  8CAB               	bsf	4011,6,c	;volatile
  2152  003ACA                     l2224:
  2153  003ACA  B403               	btfsc	OpenUSART@config,2,c
  2154  003ACC  8EAC               	bsf	4012,7,c	;volatile
  2155  003ACE  A603               	btfss	OpenUSART@config,3,c
  2156  003AD0  D002               	goto	l1227
  2157  003AD2  88AB               	bsf	4011,4,c	;volatile
  2158  003AD4  D001               	goto	l2232
  2159  003AD6                     l1227:
  2160  003AD6  8AAB               	bsf	4011,5,c	;volatile
  2161  003AD8                     l2232:
  2162  003AD8  A803               	btfss	OpenUSART@config,4,c
  2163  003ADA  D002               	goto	l1229
  2164  003ADC  84AC               	bsf	4012,2,c	;volatile
  2165  003ADE  D001               	goto	l1230
  2166  003AE0                     l1229:
  2167  003AE0  94AC               	bcf	4012,2,c	;volatile
  2168  003AE2                     l1230:
  2169  003AE2  989E               	bcf	3998,4,c	;volatile
  2170  003AE4  AC03               	btfss	OpenUSART@config,6,c
  2171  003AE6  D002               	goto	l1231
  2172  003AE8  8A9D               	bsf	3997,5,c	;volatile
  2173  003AEA  D001               	goto	l1232
  2174  003AEC                     l1231:
  2175  003AEC  9A9D               	bcf	3997,5,c	;volatile
  2176  003AEE                     l1232:
  2177  003AEE  9A9E               	bcf	3998,5,c	;volatile
  2178  003AF0  AE03               	btfss	OpenUSART@config,7,c
  2179  003AF2  D002               	goto	l1233
  2180  003AF4  889D               	bsf	3997,4,c	;volatile
  2181  003AF6  D001               	goto	l1234
  2182  003AF8                     l1233:
  2183  003AF8  989D               	bcf	3997,4,c	;volatile
  2184  003AFA                     l1234:
  2185  003AFA  C001  FFAF         	movff	OpenUSART@spbrg,4015	;volatile
  2186  003AFE  8AAC               	bsf	4012,5,c	;volatile
  2187  003B00  8EAB               	bsf	4011,7,c	;volatile
  2188  003B02  9C94               	bcf	3988,6,c	;volatile
  2189  003B04  8E94               	bsf	3988,7,c	;volatile
  2190  003B06  B8AC               	btfsc	4012,4,c	;volatile
  2191  003B08  BEAC               	btfsc	4012,7,c	;volatile
  2192  003B0A  D001               	goto	l1236
  2193  003B0C  8C94               	bsf	3988,6,c	;volatile
  2194  003B0E                     l1236:
  2195  003B0E  0012               	return	
  2196  003B10  FFFF               	dw	65535	; errata NOP
  2197  003B12                     __end_of_OpenUSART:
  2198                           	opt stack 0
  2199                           tblptru	equ	0xFF8
  2200                           prodh	equ	0xFF4
  2201                           prodl	equ	0xFF3
  2202                           postinc0	equ	0xFEE
  2203                           wreg	equ	0xFE8
  2204                           indf2	equ	0xFDF
  2205                           fsr2h	equ	0xFDA
  2206                           fsr2l	equ	0xFD9
  2207                           status	equ	0xFD8
  2208                           
  2209 ;; *************** function _OpenI2C *****************
  2210 ;; Defined at:
  2211 ;;		line 14 in file "/Applications/microchip/xc8/v1.32/sources/pic18/plib/i2c/i2c_open.c"
  2212 ;; Parameters:    Size  Location     Type
  2213 ;;  sync_mode       1    wreg     unsigned char 
  2214 ;;  slew            1    0[COMRAM] unsigned char 
  2215 ;; Auto vars:     Size  Location     Type
  2216 ;;  sync_mode       1    1[COMRAM] unsigned char 
  2217 ;; Return value:  Size  Location     Type
  2218 ;;		None               void
  2219 ;; Registers used:
  2220 ;;		wreg, status,2, status,0
  2221 ;; Tracked objects:
  2222 ;;		On entry : 0/0
  2223 ;;		On exit  : 0/0
  2224 ;;		Unchanged: 0/0
  2225 ;; Data sizes:     COMRAM   BANK0   BANK1   BANK2   BANK3   BANK4   BANK5
  2226 ;;      Params:         1       0       0       0       0       0       0
  2227 ;;      Locals:         1       0       0       0       0       0       0
  2228 ;;      Temps:          0       0       0       0       0       0       0
  2229 ;;      Totals:         2       0       0       0       0       0       0
  2230 ;;Total ram usage:        2 bytes
  2231 ;; Hardware stack levels used:    1
  2232 ;; This function calls:
  2233 ;;		Nothing
  2234 ;; This function is called by:
  2235 ;;		_initI2C_USART
  2236 ;; This function uses a non-reentrant model
  2237 ;;
  2238                           
  2239                           	psect	text18
  2240  003922                     __ptext18:
  2241                           	opt stack 0
  2242  003922                     _OpenI2C:
  2243                           	opt stack 29
  2244                           
  2245                           ;incstack = 0
  2246  003922  FFFF               	dw	65535
  2247                           
  2248                           ;OpenI2C@sync_mode stored from wreg
  2249  003924  6E02               	movwf	OpenI2C@sync_mode,c
  2250  003926  0E3F               	movlw	63
  2251  003928  16C7               	andwf	4039,f,c	;volatile
  2252  00392A  0E00               	movlw	0
  2253  00392C  6EC6               	movwf	4038,c	;volatile
  2254  00392E  0E00               	movlw	0
  2255  003930  6EC5               	movwf	4037,c	;volatile
  2256  003932  5002               	movf	OpenI2C@sync_mode,w,c
  2257  003934  12C6               	iorwf	4038,f,c	;volatile
  2258  003936  5001               	movf	OpenI2C@slew,w,c
  2259  003938  12C7               	iorwf	4039,f,c	;volatile
  2260  00393A  8694               	bsf	3988,3,c	;volatile
  2261  00393C  8894               	bsf	3988,4,c	;volatile
  2262  00393E  8AC6               	bsf	4038,5,c	;volatile
  2263  003940  0012               	return	
  2264  003942  FFFF               	dw	65535	; errata NOP
  2265  003944                     __end_of_OpenI2C:
  2266                           	opt stack 0
  2267                           tblptru	equ	0xFF8
  2268                           prodh	equ	0xFF4
  2269                           prodl	equ	0xFF3
  2270                           postinc0	equ	0xFEE
  2271                           wreg	equ	0xFE8
  2272                           indf2	equ	0xFDF
  2273                           fsr2h	equ	0xFDA
  2274                           fsr2l	equ	0xFD9
  2275                           status	equ	0xFD8
  2276                           
  2277 ;; *************** function _Delay10KTCYx *****************
  2278 ;; Defined at:
  2279 ;;		line 8 in file "/Applications/microchip/xc8/v1.32/sources/pic18/d10ktcyx.c"
  2280 ;; Parameters:    Size  Location     Type
  2281 ;;  unit            1    wreg     unsigned char 
  2282 ;; Auto vars:     Size  Location     Type
  2283 ;;  unit            1    1[COMRAM] unsigned char 
  2284 ;; Return value:  Size  Location     Type
  2285 ;;		None               void
  2286 ;; Registers used:
  2287 ;;		wreg
  2288 ;; Tracked objects:
  2289 ;;		On entry : 0/0
  2290 ;;		On exit  : 0/0
  2291 ;;		Unchanged: 0/0
  2292 ;; Data sizes:     COMRAM   BANK0   BANK1   BANK2   BANK3   BANK4   BANK5
  2293 ;;      Params:         0       0       0       0       0       0       0
  2294 ;;      Locals:         1       0       0       0       0       0       0
  2295 ;;      Temps:          1       0       0       0       0       0       0
  2296 ;;      Totals:         2       0       0       0       0       0       0
  2297 ;;Total ram usage:        2 bytes
  2298 ;; Hardware stack levels used:    1
  2299 ;; This function calls:
  2300 ;;		Nothing
  2301 ;; This function is called by:
  2302 ;;		_setupCANTxRx
  2303 ;;		_initI2C_USART
  2304 ;;		_initMPU6050
  2305 ;; This function uses a non-reentrant model
  2306 ;;
  2307                           
  2308                           	psect	text19
  2309  003832                     __ptext19:
  2310                           	opt stack 0
  2311  003832                     _Delay10KTCYx:
  2312                           	opt stack 29
  2313                           
  2314                           ;incstack = 0
  2315  003832  FFFF               	dw	65535
  2316                           
  2317                           ;Delay10KTCYx@unit stored from wreg
  2318  003834  6E02               	movwf	Delay10KTCYx@unit,c
  2319  003836                     l1541:
  2320  003836  0E0A               	movlw	10
  2321  003838  6E01               	movwf	??_Delay10KTCYx& (0+255),c
  2322  00383A  0EBE               	movlw	190
  2323  00383C                     u2497:
  2324  00383C  2EE8               	decfsz	wreg,f,c
  2325  00383E  D7FE               	goto	u2497
  2326  003840  2E01               	decfsz	??_Delay10KTCYx& (0+255),f,c
  2327  003842  D7FC               	goto	u2497
  2328  003844  D000               	nop2	
  2329  003846  2E02               	decfsz	Delay10KTCYx@unit,f,c
  2330  003848  D7F6               	goto	l1541
  2331  00384A  0012               	return	
  2332  00384C  FFFF               	dw	65535	; errata NOP
  2333  00384E                     __end_of_Delay10KTCYx:
  2334                           	opt stack 0
  2335                           tblptru	equ	0xFF8
  2336                           prodh	equ	0xFF4
  2337                           prodl	equ	0xFF3
  2338                           postinc0	equ	0xFEE
  2339                           wreg	equ	0xFE8
  2340                           indf2	equ	0xFDF
  2341                           fsr2h	equ	0xFDA
  2342                           fsr2l	equ	0xFD9
  2343                           status	equ	0xFD8
  2344                           
  2345 ;; *************** function _flashLED *****************
  2346 ;; Defined at:
  2347 ;;		line 84 in file "main.c"
  2348 ;; Parameters:    Size  Location     Type
  2349 ;;		None
  2350 ;; Auto vars:     Size  Location     Type
  2351 ;;  count           2    4[COMRAM] int 
  2352 ;; Return value:  Size  Location     Type
  2353 ;;		None               void
  2354 ;; Registers used:
  2355 ;;		wreg, status,2, status,0, cstack
  2356 ;; Tracked objects:
  2357 ;;		On entry : 0/0
  2358 ;;		On exit  : 0/0
  2359 ;;		Unchanged: 0/0
  2360 ;; Data sizes:     COMRAM   BANK0   BANK1   BANK2   BANK3   BANK4   BANK5
  2361 ;;      Params:         0       0       0       0       0       0       0
  2362 ;;      Locals:         2       0       0       0       0       0       0
  2363 ;;      Temps:          0       0       0       0       0       0       0
  2364 ;;      Totals:         2       0       0       0       0       0       0
  2365 ;;Total ram usage:        2 bytes
  2366 ;; Hardware stack levels used:    1
  2367 ;; Hardware stack levels required when called:    1
  2368 ;; This function calls:
  2369 ;;		_delayzz
  2370 ;; This function is called by:
  2371 ;;		_main
  2372 ;; This function uses a non-reentrant model
  2373 ;;
  2374                           
  2375                           	psect	text20
  2376  003990                     __ptext20:
  2377                           	opt stack 0
  2378  003990                     _flashLED:
  2379                           	opt stack 29
  2380                           
  2381                           ;incstack = 0
  2382  003990  FFFF               	dw	65535
  2383                           
  2384                           ;main.c: 85: int count;
  2385                           ;main.c: 86: count = 10;
  2386  003992  0E00               	movlw	0
  2387  003994  6E06               	movwf	flashLED@count+1,c
  2388  003996  0E0A               	movlw	10
  2389  003998  6E05               	movwf	flashLED@count,c
  2390  00399A                     l2444:
  2391                           
  2392                           ;main.c: 88: LATBbits.LATB0 = 1;
  2393  00399A  808A               	bsf	3978,0,c	;volatile
  2394                           
  2395                           ;main.c: 89: delayzz();
  2396  00399C  EC09  F01D         	call	_delayzz	;wreg free
  2397                           
  2398                           ;main.c: 90: LATBbits.LATB0 = 0;
  2399  0039A0  908A               	bcf	3978,0,c	;volatile
  2400                           
  2401                           ;main.c: 91: delayzz();
  2402  0039A2  EC09  F01D         	call	_delayzz	;wreg free
  2403                           
  2404                           ;main.c: 92: count--;
  2405  0039A6  0605               	decf	flashLED@count,f,c
  2406  0039A8  A0D8               	btfss	status,0,c
  2407  0039AA  0606               	decf	flashLED@count+1,f,c
  2408                           
  2409                           ;main.c: 93: if (count == 0)
  2410  0039AC  5006               	movf	flashLED@count+1,w,c
  2411  0039AE  1005               	iorwf	flashLED@count,w,c
  2412  0039B0  B4D8               	btfsc	status,2,c
  2413                           
  2414                           ;main.c: 94: {
  2415                           ;main.c: 95: break;
  2416  0039B2  0012               	return	
  2417  0039B4  FFFF               	dw	65535	; assembler added errata NOP
  2418  0039B6  D7F1               	goto	l2444
  2419  0039B8  FFFF               	dw	65535	; errata NOP
  2420  0039BA                     __end_of_flashLED:
  2421                           	opt stack 0
  2422                           tblptru	equ	0xFF8
  2423                           prodh	equ	0xFF4
  2424                           prodl	equ	0xFF3
  2425                           postinc0	equ	0xFEE
  2426                           wreg	equ	0xFE8
  2427                           indf2	equ	0xFDF
  2428                           fsr2h	equ	0xFDA
  2429                           fsr2l	equ	0xFD9
  2430                           status	equ	0xFD8
  2431                           
  2432 ;; *************** function _delayzz *****************
  2433 ;; Defined at:
  2434 ;;		line 126 in file "../pic18f458_badgerloop.c"
  2435 ;; Parameters:    Size  Location     Type
  2436 ;;		None
  2437 ;; Auto vars:     Size  Location     Type
  2438 ;;  j               2    2[COMRAM] int 
  2439 ;;  i               2    0[COMRAM] int 
  2440 ;; Return value:  Size  Location     Type
  2441 ;;		None               void
  2442 ;; Registers used:
  2443 ;;		wreg, status,2, status,0
  2444 ;; Tracked objects:
  2445 ;;		On entry : 0/0
  2446 ;;		On exit  : 0/0
  2447 ;;		Unchanged: 0/0
  2448 ;; Data sizes:     COMRAM   BANK0   BANK1   BANK2   BANK3   BANK4   BANK5
  2449 ;;      Params:         0       0       0       0       0       0       0
  2450 ;;      Locals:         4       0       0       0       0       0       0
  2451 ;;      Temps:          0       0       0       0       0       0       0
  2452 ;;      Totals:         4       0       0       0       0       0       0
  2453 ;;Total ram usage:        4 bytes
  2454 ;; Hardware stack levels used:    1
  2455 ;; This function calls:
  2456 ;;		Nothing
  2457 ;; This function is called by:
  2458 ;;		_flashLED
  2459 ;; This function uses a non-reentrant model
  2460 ;;
  2461                           
  2462                           	psect	text21
  2463  003A12                     __ptext21:
  2464                           	opt stack 0
  2465  003A12                     _delayzz:
  2466                           	opt stack 29
  2467                           
  2468                           ;incstack = 0
  2469  003A12  FFFF               	dw	65535
  2470                           
  2471                           ;pic18f458_badgerloop.c: 127: int i, j;
  2472                           ;pic18f458_badgerloop.c: 128: for(i=0;i<5000;i++)
  2473  003A14  0E00               	movlw	0
  2474  003A16  6E02               	movwf	delayzz@i+1,c
  2475  003A18  0E00               	movlw	0
  2476  003A1A  6E01               	movwf	delayzz@i,c
  2477  003A1C  5002               	movf	delayzz@i+1,w,c
  2478  003A1E  0A80               	xorlw	128
  2479  003A20  0F6D               	addlw	-147
  2480  003A22  0E88               	movlw	136
  2481  003A24  B4D8               	btfsc	status,2,c
  2482  003A26  5C01               	subwf	delayzz@i,w,c
  2483  003A28  B0D8               	btfsc	status,0,c
  2484  003A2A  D012               	goto	l1147
  2485                           
  2486                           ;pic18f458_badgerloop.c: 129: {
  2487                           ;pic18f458_badgerloop.c: 130: for(j=0;j<2;j++)
  2488  003A2C  0E00               	movlw	0
  2489  003A2E  6E04               	movwf	delayzz@j+1,c
  2490  003A30  0E00               	movlw	0
  2491  003A32  6E03               	movwf	delayzz@j,c
  2492  003A34  5004               	movf	delayzz@j+1,w,c
  2493  003A36  0A80               	xorlw	128
  2494  003A38  0F80               	addlw	-128
  2495  003A3A  0E02               	movlw	2
  2496  003A3C  B4D8               	btfsc	status,2,c
  2497  003A3E  5C03               	subwf	delayzz@j,w,c
  2498  003A40  B0D8               	btfsc	status,0,c
  2499  003A42  D003               	goto	l2170
  2500                           
  2501                           ;pic18f458_badgerloop.c: 131: {
  2502  003A44  4A03               	infsnz	delayzz@j,f,c
  2503  003A46  2A04               	incf	delayzz@j+1,f,c
  2504  003A48  D7F5               	goto	L2
  2505  003A4A                     l2170:
  2506  003A4A  4A01               	infsnz	delayzz@i,f,c
  2507  003A4C  2A02               	incf	delayzz@i+1,f,c
  2508  003A4E  D7E6               	goto	L3
  2509  003A50                     l1147:
  2510  003A50  0012               	return	
  2511  003A52  FFFF               	dw	65535	; errata NOP
  2512  003A54                     __end_of_delayzz:
  2513                           	opt stack 0
  2514                           tblptru	equ	0xFF8
  2515                           prodh	equ	0xFF4
  2516                           prodl	equ	0xFF3
  2517                           postinc0	equ	0xFEE
  2518                           wreg	equ	0xFE8
  2519                           indf2	equ	0xFDF
  2520                           fsr2h	equ	0xFDA
  2521                           fsr2l	equ	0xFD9
  2522                           status	equ	0xFD8
  2523                           
  2524 ;; *************** function _convertFrom16To8 *****************
  2525 ;; Defined at:
  2526 ;;		line 146 in file "../pic18f458_badgerloop.c"
  2527 ;; Parameters:    Size  Location     Type
  2528 ;;  dataAll         2    0[COMRAM] unsigned int 
  2529 ;; Auto vars:     Size  Location     Type
  2530 ;;		None
  2531 ;; Return value:  Size  Location     Type
  2532 ;;                  2    0[COMRAM] PTR unsigned char 
  2533 ;; Registers used:
  2534 ;;		wreg, status,2, status,0
  2535 ;; Tracked objects:
  2536 ;;		On entry : 0/0
  2537 ;;		On exit  : 0/0
  2538 ;;		Unchanged: 0/0
  2539 ;; Data sizes:     COMRAM   BANK0   BANK1   BANK2   BANK3   BANK4   BANK5
  2540 ;;      Params:         2       0       0       0       0       0       0
  2541 ;;      Locals:         0       0       0       0       0       0       0
  2542 ;;      Temps:          3       0       0       0       0       0       0
  2543 ;;      Totals:         5       0       0       0       0       0       0
  2544 ;;Total ram usage:        5 bytes
  2545 ;; Hardware stack levels used:    1
  2546 ;; This function calls:
  2547 ;;		Nothing
  2548 ;; This function is called by:
  2549 ;;		_main
  2550 ;; This function uses a non-reentrant model
  2551 ;;
  2552                           
  2553                           	psect	text22
  2554  003902                     __ptext22:
  2555                           	opt stack 0
  2556  003902                     _convertFrom16To8:
  2557                           	opt stack 30
  2558                           
  2559                           ;incstack = 0
  2560  003902  FFFF               	dw	65535
  2561                           
  2562                           ;pic18f458_badgerloop.c: 147: static uint8_t arrayData[2] = { 0x00, 0x00 };
  2563                           ;pic18f458_badgerloop.c: 149: *(arrayData) = (dataAll >> 8) & 0x00FF;
  2564  003904  C002  F003         	movff	convertFrom16To8@dataAll+1,??_convertFrom16To8
  2565  003908  C003  F004         	movff	??_convertFrom16To8,??_convertFrom16To8+1
  2566  00390C  6A05               	clrf	(??_convertFrom16To8+2)& (0+255),c
  2567  00390E  5004               	movf	??_convertFrom16To8+1,w,c
  2568  003910  6E5E               	movwf	convertFrom16To8@arrayData,c
  2569                           
  2570                           ;pic18f458_badgerloop.c: 150: arrayData[1] = dataAll & 0x00FF;
  2571  003912  C001  F05F         	movff	convertFrom16To8@dataAll,convertFrom16To8@arrayData+1
  2572                           
  2573                           ;pic18f458_badgerloop.c: 151: return arrayData;
  2574  003916  0E00               	movlw	high convertFrom16To8@arrayData
  2575  003918  6E02               	movwf	?_convertFrom16To8+1,c
  2576  00391A  0E5E               	movlw	low convertFrom16To8@arrayData
  2577  00391C  6E01               	movwf	?_convertFrom16To8,c
  2578  00391E  0012               	return	
  2579  003920  FFFF               	dw	65535	; errata NOP
  2580  003922                     __end_of_convertFrom16To8:
  2581                           	opt stack 0
  2582                           tblptru	equ	0xFF8
  2583                           prodh	equ	0xFF4
  2584                           prodl	equ	0xFF3
  2585                           postinc0	equ	0xFEE
  2586                           wreg	equ	0xFE8
  2587                           indf2	equ	0xFDF
  2588                           fsr2h	equ	0xFDA
  2589                           fsr2l	equ	0xFD9
  2590                           status	equ	0xFD8
  2591                           
  2592 ;; *************** function _MPU6050_getMotion6 *****************
  2593 ;; Defined at:
  2594 ;;		line 1733 in file "../MPU6050.c"
  2595 ;; Parameters:    Size  Location     Type
  2596 ;;  ax              2   18[COMRAM] PTR int 
  2597 ;;		 -> main@ax(2), 
  2598 ;;  ay              2   20[COMRAM] PTR int 
  2599 ;;		 -> main@ay(2), 
  2600 ;;  az              2   22[COMRAM] PTR int 
  2601 ;;		 -> main@az(2), 
  2602 ;;  gx              2   24[COMRAM] PTR int 
  2603 ;;		 -> main@gx(2), 
  2604 ;;  gy              2   26[COMRAM] PTR int 
  2605 ;;		 -> main@gy(2), 
  2606 ;;  gz              2   28[COMRAM] PTR int 
  2607 ;;		 -> main@gz(2), 
  2608 ;; Auto vars:     Size  Location     Type
  2609 ;;		None
  2610 ;; Return value:  Size  Location     Type
  2611 ;;		None               void
  2612 ;; Registers used:
  2613 ;;		wreg, fsr2l, fsr2h, status,2, status,0, prodl, prodh, cstack
  2614 ;; Tracked objects:
  2615 ;;		On entry : 0/0
  2616 ;;		On exit  : 0/0
  2617 ;;		Unchanged: 0/0
  2618 ;; Data sizes:     COMRAM   BANK0   BANK1   BANK2   BANK3   BANK4   BANK5
  2619 ;;      Params:        12       0       0       0       0       0       0
  2620 ;;      Locals:         0       0       0       0       0       0       0
  2621 ;;      Temps:          2       0       0       0       0       0       0
  2622 ;;      Totals:        14       0       0       0       0       0       0
  2623 ;;Total ram usage:       14 bytes
  2624 ;; Hardware stack levels used:    1
  2625 ;; Hardware stack levels required when called:    3
  2626 ;; This function calls:
  2627 ;;		_I2Cdev_readBytes
  2628 ;; This function is called by:
  2629 ;;		_main
  2630 ;;		_MPU6050_getMotion9
  2631 ;; This function uses a non-reentrant model
  2632 ;;
  2633                           
  2634                           	psect	text23
  2635  003F0C                     __ptext23:
  2636                           	opt stack 0
  2637  003F0C                     _MPU6050_getMotion6:
  2638                           	opt stack 27
  2639                           
  2640                           ;incstack = 0
  2641  003F0C  FFFF               	dw	65535
  2642                           
  2643                           ;MPU6050.c: 1734: I2Cdev_readBytes(mpu6050.devAddr, 0x3B, 14, mpu6050.buffer);
  2644  003F0E  0E3B               	movlw	59
  2645  003F10  6E07               	movwf	I2Cdev_readBytes@regAddr,c
  2646  003F12  0E0E               	movlw	14
  2647  003F14  6E08               	movwf	I2Cdev_readBytes@length,c
  2648  003F16  0E00               	movlw	high (_mpu6050+1)
  2649  003F18  6E0A               	movwf	I2Cdev_readBytes@data+1,c
  2650  003F1A  0E49               	movlw	low (_mpu6050+1)
  2651  003F1C  6E09               	movwf	I2Cdev_readBytes@data,c
  2652  003F1E  5048               	movf	_mpu6050,w,c
  2653  003F20  EC0F  F01F         	call	_I2Cdev_readBytes
  2654                           
  2655                           ;MPU6050.c: 1735: *ax = (((int16_t)mpu6050.buffer[0]) << 8) | mpu6050.buffer[1];
  2656  003F24  504A               	movf	_mpu6050+2,w,c
  2657  003F26  C049  F01F         	movff	_mpu6050+1,??_MPU6050_getMotion6
  2658  003F2A  6A20               	clrf	(??_MPU6050_getMotion6+1)& (0+255),c
  2659  003F2C  C01F  F020         	movff	??_MPU6050_getMotion6,??_MPU6050_getMotion6+1
  2660  003F30  6A1F               	clrf	??_MPU6050_getMotion6,c
  2661  003F32  121F               	iorwf	??_MPU6050_getMotion6,f,c
  2662  003F34  0E00               	movlw	0
  2663  003F36  1220               	iorwf	??_MPU6050_getMotion6+1,f,c
  2664  003F38  C013  FFD9         	movff	MPU6050_getMotion6@ax,fsr2l
  2665  003F3C  C014  FFDA         	movff	MPU6050_getMotion6@ax+1,fsr2h
  2666  003F40  C01F  FFDE         	movff	??_MPU6050_getMotion6,postinc2
  2667  003F44  C020  FFDD         	movff	??_MPU6050_getMotion6+1,postdec2
  2668                           
  2669                           ;MPU6050.c: 1736: *ay = (((int16_t)mpu6050.buffer[2]) << 8) | mpu6050.buffer[3];
  2670  003F48  504C               	movf	_mpu6050+4,w,c
  2671  003F4A  C04B  F01F         	movff	_mpu6050+3,??_MPU6050_getMotion6
  2672  003F4E  6A20               	clrf	(??_MPU6050_getMotion6+1)& (0+255),c
  2673  003F50  C01F  F020         	movff	??_MPU6050_getMotion6,??_MPU6050_getMotion6+1
  2674  003F54  6A1F               	clrf	??_MPU6050_getMotion6,c
  2675  003F56  121F               	iorwf	??_MPU6050_getMotion6,f,c
  2676  003F58  0E00               	movlw	0
  2677  003F5A  1220               	iorwf	??_MPU6050_getMotion6+1,f,c
  2678  003F5C  C015  FFD9         	movff	MPU6050_getMotion6@ay,fsr2l
  2679  003F60  C016  FFDA         	movff	MPU6050_getMotion6@ay+1,fsr2h
  2680  003F64  C01F  FFDE         	movff	??_MPU6050_getMotion6,postinc2
  2681  003F68  C020  FFDD         	movff	??_MPU6050_getMotion6+1,postdec2
  2682                           
  2683                           ;MPU6050.c: 1737: *az = (((int16_t)mpu6050.buffer[4]) << 8) | mpu6050.buffer[5];
  2684  003F6C  504E               	movf	_mpu6050+6,w,c
  2685  003F6E  C04D  F01F         	movff	_mpu6050+5,??_MPU6050_getMotion6
  2686  003F72  6A20               	clrf	(??_MPU6050_getMotion6+1)& (0+255),c
  2687  003F74  C01F  F020         	movff	??_MPU6050_getMotion6,??_MPU6050_getMotion6+1
  2688  003F78  6A1F               	clrf	??_MPU6050_getMotion6,c
  2689  003F7A  121F               	iorwf	??_MPU6050_getMotion6,f,c
  2690  003F7C  0E00               	movlw	0
  2691  003F7E  1220               	iorwf	??_MPU6050_getMotion6+1,f,c
  2692  003F80  C017  FFD9         	movff	MPU6050_getMotion6@az,fsr2l
  2693  003F84  C018  FFDA         	movff	MPU6050_getMotion6@az+1,fsr2h
  2694  003F88  C01F  FFDE         	movff	??_MPU6050_getMotion6,postinc2
  2695  003F8C  C020  FFDD         	movff	??_MPU6050_getMotion6+1,postdec2
  2696                           
  2697                           ;MPU6050.c: 1738: *gx = (((int16_t)mpu6050.buffer[8]) << 8) | mpu6050.buffer[9];
  2698  003F90  5052               	movf	_mpu6050+10,w,c
  2699  003F92  C051  F01F         	movff	_mpu6050+9,??_MPU6050_getMotion6
  2700  003F96  6A20               	clrf	(??_MPU6050_getMotion6+1)& (0+255),c
  2701  003F98  C01F  F020         	movff	??_MPU6050_getMotion6,??_MPU6050_getMotion6+1
  2702  003F9C  6A1F               	clrf	??_MPU6050_getMotion6,c
  2703  003F9E  121F               	iorwf	??_MPU6050_getMotion6,f,c
  2704  003FA0  0E00               	movlw	0
  2705  003FA2  1220               	iorwf	??_MPU6050_getMotion6+1,f,c
  2706  003FA4  C019  FFD9         	movff	MPU6050_getMotion6@gx,fsr2l
  2707  003FA8  C01A  FFDA         	movff	MPU6050_getMotion6@gx+1,fsr2h
  2708  003FAC  C01F  FFDE         	movff	??_MPU6050_getMotion6,postinc2
  2709  003FB0  C020  FFDD         	movff	??_MPU6050_getMotion6+1,postdec2
  2710                           
  2711                           ;MPU6050.c: 1739: *gy = (((int16_t)mpu6050.buffer[10]) << 8) | mpu6050.buffer[11];
  2712  003FB4  5054               	movf	_mpu6050+12,w,c
  2713  003FB6  C053  F01F         	movff	_mpu6050+11,??_MPU6050_getMotion6
  2714  003FBA  6A20               	clrf	(??_MPU6050_getMotion6+1)& (0+255),c
  2715  003FBC  C01F  F020         	movff	??_MPU6050_getMotion6,??_MPU6050_getMotion6+1
  2716  003FC0  6A1F               	clrf	??_MPU6050_getMotion6,c
  2717  003FC2  121F               	iorwf	??_MPU6050_getMotion6,f,c
  2718  003FC4  0E00               	movlw	0
  2719  003FC6  1220               	iorwf	??_MPU6050_getMotion6+1,f,c
  2720  003FC8  C01B  FFD9         	movff	MPU6050_getMotion6@gy,fsr2l
  2721  003FCC  C01C  FFDA         	movff	MPU6050_getMotion6@gy+1,fsr2h
  2722  003FD0  C01F  FFDE         	movff	??_MPU6050_getMotion6,postinc2
  2723  003FD4  C020  FFDD         	movff	??_MPU6050_getMotion6+1,postdec2
  2724                           
  2725                           ;MPU6050.c: 1740: *gz = (((int16_t)mpu6050.buffer[12]) << 8) | mpu6050.buffer[13];
  2726  003FD8  5056               	movf	_mpu6050+14,w,c
  2727  003FDA  C055  F01F         	movff	_mpu6050+13,??_MPU6050_getMotion6
  2728  003FDE  6A20               	clrf	(??_MPU6050_getMotion6+1)& (0+255),c
  2729  003FE0  C01F  F020         	movff	??_MPU6050_getMotion6,??_MPU6050_getMotion6+1
  2730  003FE4  6A1F               	clrf	??_MPU6050_getMotion6,c
  2731  003FE6  121F               	iorwf	??_MPU6050_getMotion6,f,c
  2732  003FE8  0E00               	movlw	0
  2733  003FEA  1220               	iorwf	??_MPU6050_getMotion6+1,f,c
  2734  003FEC  C01D  FFD9         	movff	MPU6050_getMotion6@gz,fsr2l
  2735  003FF0  C01E  FFDA         	movff	MPU6050_getMotion6@gz+1,fsr2h
  2736  003FF4  C01F  FFDE         	movff	??_MPU6050_getMotion6,postinc2
  2737  003FF8  C020  FFDD         	movff	??_MPU6050_getMotion6+1,postdec2
  2738  003FFC  0012               	return	
  2739  003FFE  FFFF               	dw	65535	; errata NOP
  2740  004000                     __end_of_MPU6050_getMotion6:
  2741                           	opt stack 0
  2742                           tblptru	equ	0xFF8
  2743                           prodh	equ	0xFF4
  2744                           prodl	equ	0xFF3
  2745                           postinc0	equ	0xFEE
  2746                           wreg	equ	0xFE8
  2747                           indf2	equ	0xFDF
  2748                           postinc2	equ	0xFDE
  2749                           postdec2	equ	0xFDD
  2750                           fsr2h	equ	0xFDA
  2751                           fsr2l	equ	0xFD9
  2752                           status	equ	0xFD8
  2753                           
  2754 ;; *************** function _I2Cdev_readBytes *****************
  2755 ;; Defined at:
  2756 ;;		line 43 in file "../I2Cdev.c"
  2757 ;; Parameters:    Size  Location     Type
  2758 ;;  devAddr         1    wreg     unsigned char 
  2759 ;;  regAddr         1    6[COMRAM] unsigned char 
  2760 ;;  length          1    7[COMRAM] unsigned char 
  2761 ;;  data            2    8[COMRAM] PTR unsigned char 
  2762 ;;		 -> I2C_Bytes(3), mpu6050(15), I2Cdev_writeBits@b(1), I2Cdev_writeBit@b(1), 
  2763 ;;		 -> I2Cdev_readBits@b(1), I2Cdev_readBit@b(1), 
  2764 ;; Auto vars:     Size  Location     Type
  2765 ;;  devAddr         1   16[COMRAM] unsigned char 
  2766 ;;  count           1   17[COMRAM] char 
  2767 ;; Return value:  Size  Location     Type
  2768 ;;                  1    wreg      char 
  2769 ;; Registers used:
  2770 ;;		wreg, fsr2l, fsr2h, status,2, status,0, prodl, prodh, cstack
  2771 ;; Tracked objects:
  2772 ;;		On entry : 0/0
  2773 ;;		On exit  : 0/0
  2774 ;;		Unchanged: 0/0
  2775 ;; Data sizes:     COMRAM   BANK0   BANK1   BANK2   BANK3   BANK4   BANK5
  2776 ;;      Params:         4       0       0       0       0       0       0
  2777 ;;      Locals:         2       0       0       0       0       0       0
  2778 ;;      Temps:          6       0       0       0       0       0       0
  2779 ;;      Totals:        12       0       0       0       0       0       0
  2780 ;;Total ram usage:       12 bytes
  2781 ;; Hardware stack levels used:    1
  2782 ;; Hardware stack levels required when called:    2
  2783 ;; This function calls:
  2784 ;;		_IdleI2C
  2785 ;;		_ReadI2C
  2786 ;;		_WriteI2C
  2787 ;;		___wmul
  2788 ;; This function is called by:
  2789 ;;		_I2Cdev_readByte
  2790 ;;		_MPU6050_getMotion6
  2791 ;;		_MPU6050_getAcceleration
  2792 ;;		_MPU6050_getAccelerationX
  2793 ;;		_MPU6050_getAccelerationY
  2794 ;;		_MPU6050_getAccelerationZ
  2795 ;;		_MPU6050_getTemperature
  2796 ;;		_MPU6050_getRotation
  2797 ;;		_MPU6050_getRotationX
  2798 ;;		_MPU6050_getRotationY
  2799 ;;		_MPU6050_getRotationZ
  2800 ;;		_MPU6050_getExternalSensorWord
  2801 ;;		_MPU6050_getExternalSensorDWord
  2802 ;;		_MPU6050_getFIFOCount
  2803 ;;		_MPU6050_getFIFOBytes
  2804 ;;		_MPU6050_getXAccelOffset
  2805 ;;		_MPU6050_getYAccelOffset
  2806 ;;		_MPU6050_getZAccelOffset
  2807 ;;		_MPU6050_getXGyroOffset
  2808 ;;		_MPU6050_getYGyroOffset
  2809 ;;		_MPU6050_getZGyroOffset
  2810 ;;		_MPU6050_readMemoryBlock
  2811 ;;		_MS_5803_ADC
  2812 ;;		_MS_5803_init
  2813 ;; This function uses a non-reentrant model
  2814 ;;
  2815                           
  2816                           	psect	text24
  2817  003E1E                     __ptext24:
  2818                           	opt stack 0
  2819  003E1E                     _I2Cdev_readBytes:
  2820                           	opt stack 23
  2821                           
  2822                           ;incstack = 0
  2823  003E1E  FFFF               	dw	65535
  2824                           
  2825                           ;I2Cdev_readBytes@devAddr stored from wreg
  2826  003E20  6E11               	movwf	I2Cdev_readBytes@devAddr,c
  2827                           
  2828                           ;I2Cdev.c: 44: int8_t count = 0;
  2829  003E22  0E00               	movlw	0
  2830  003E24  6E12               	movwf	I2Cdev_readBytes@count,c
  2831                           
  2832                           ;I2Cdev.c: 47: IdleI2C();
  2833  003E26  ECE1  F01B         	call	_IdleI2C	;wreg free
  2834                           
  2835                           ;I2Cdev.c: 48: SSPCON2bits.SEN=1;while(SSPCON2bits.SEN);
  2836  003E2A  80C5               	bsf	4037,0,c	;volatile
  2837  003E2C                     l121:
  2838  003E2C  B0C5               	btfsc	4037,0,c	;volatile
  2839  003E2E  D7FE               	goto	l121
  2840                           
  2841                           ;I2Cdev.c: 51: IdleI2C();
  2842  003E30  ECE1  F01B         	call	_IdleI2C	;wreg free
  2843                           
  2844                           ;I2Cdev.c: 52: WriteI2C(devAddr << 1 | 0x00);
  2845  003E34  5011               	movf	I2Cdev_readBytes@devAddr,w,c
  2846  003E36  2411               	addwf	I2Cdev_readBytes@devAddr,w,c
  2847  003E38  EC89  F01D         	call	_WriteI2C
  2848                           
  2849                           ;I2Cdev.c: 55: IdleI2C();
  2850  003E3C  ECE1  F01B         	call	_IdleI2C	;wreg free
  2851                           
  2852                           ;I2Cdev.c: 56: WriteI2C(regAddr);
  2853  003E40  5007               	movf	I2Cdev_readBytes@regAddr,w,c
  2854  003E42  EC89  F01D         	call	_WriteI2C
  2855                           
  2856                           ;I2Cdev.c: 59: IdleI2C();
  2857  003E46  ECE1  F01B         	call	_IdleI2C	;wreg free
  2858                           
  2859                           ;I2Cdev.c: 60: SSPCON2bits.RSEN=1;while(SSPCON2bits.RSEN);
  2860  003E4A  82C5               	bsf	4037,1,c	;volatile
  2861  003E4C                     l124:
  2862  003E4C  B2C5               	btfsc	4037,1,c	;volatile
  2863  003E4E  D7FE               	goto	l124
  2864                           
  2865                           ;I2Cdev.c: 63: IdleI2C();
  2866  003E50  ECE1  F01B         	call	_IdleI2C	;wreg free
  2867                           
  2868                           ;I2Cdev.c: 64: WriteI2C(devAddr << 1 | 0x01);
  2869  003E54  80D8               	bsf	status,0,c
  2870  003E56  3411               	rlcf	I2Cdev_readBytes@devAddr,w,c
  2871  003E58  EC89  F01D         	call	_WriteI2C
  2872                           
  2873                           ;I2Cdev.c: 66: for (count = 0; count < length; count++) {
  2874  003E5C  0E00               	movlw	0
  2875  003E5E  6E12               	movwf	I2Cdev_readBytes@count,c
  2876  003E60  D03B               	goto	l3602
  2877  003E62                     l3582:
  2878                           
  2879                           ;I2Cdev.c: 68: IdleI2C();
  2880  003E62  ECE1  F01B         	call	_IdleI2C	;wreg free
  2881                           
  2882                           ;I2Cdev.c: 69: data[count] = ReadI2C();
  2883  003E66  5012               	movf	I2Cdev_readBytes@count,w,c
  2884  003E68  6E01               	movwf	___wmul@multiplier,c
  2885  003E6A  6A02               	clrf	___wmul@multiplier+1,c
  2886  003E6C  BE01               	btfsc	___wmul@multiplier,7,c
  2887  003E6E  0602               	decf	___wmul@multiplier+1,f,c
  2888  003E70  0E00               	movlw	0
  2889  003E72  6E04               	movwf	___wmul@multiplicand+1,c
  2890  003E74  0E01               	movlw	1
  2891  003E76  6E03               	movwf	___wmul@multiplicand,c
  2892  003E78  ECB3  F01C         	call	___wmul	;wreg free
  2893  003E7C  5001               	movf	?___wmul,w,c
  2894  003E7E  2409               	addwf	I2Cdev_readBytes@data,w,c
  2895  003E80  6ED9               	movwf	fsr2l,c
  2896  003E82  5002               	movf	?___wmul+1,w,c
  2897  003E84  200A               	addwfc	I2Cdev_readBytes@data+1,w,c
  2898  003E86  6EDA               	movwf	fsr2h,c
  2899  003E88  ECDD  F01C         	call	_ReadI2C	;wreg free
  2900  003E8C  6EDF               	movwf	indf2,c
  2901                           
  2902                           ;I2Cdev.c: 71: if (count == length - 1) {
  2903  003E8E  C012  F00B         	movff	I2Cdev_readBytes@count,??_I2Cdev_readBytes
  2904  003E92  6A0C               	clrf	(??_I2Cdev_readBytes+1)& (0+255),c
  2905  003E94  BE0B               	btfsc	??_I2Cdev_readBytes& (0+255),7,c
  2906  003E96  060C               	decf	(??_I2Cdev_readBytes+1)& (0+255),f,c
  2907  003E98  0EFF               	movlw	255
  2908  003E9A  6E0D               	movwf	(??_I2Cdev_readBytes+2)& (0+255),c
  2909  003E9C  0EFF               	movlw	255
  2910  003E9E  6E0E               	movwf	(??_I2Cdev_readBytes+3)& (0+255),c
  2911  003EA0  5008               	movf	I2Cdev_readBytes@length,w,c
  2912  003EA2  6E0F               	movwf	(??_I2Cdev_readBytes+4)& (0+255),c
  2913  003EA4  6A10               	clrf	(??_I2Cdev_readBytes+5)& (0+255),c
  2914  003EA6  500D               	movf	??_I2Cdev_readBytes+2,w,c
  2915  003EA8  260F               	addwf	??_I2Cdev_readBytes+4,f,c
  2916  003EAA  500E               	movf	??_I2Cdev_readBytes+3,w,c
  2917  003EAC  2210               	addwfc	??_I2Cdev_readBytes+5,f,c
  2918  003EAE  500C               	movf	??_I2Cdev_readBytes+1,w,c
  2919  003EB0  1810               	xorwf	??_I2Cdev_readBytes+5,w,c
  2920  003EB2  E102               	bnz	u1375
  2921  003EB4  500B               	movf	??_I2Cdev_readBytes,w,c
  2922  003EB6  180F               	xorwf	??_I2Cdev_readBytes+4,w,c
  2923  003EB8                     u1375:
  2924  003EB8  A4D8               	btfss	status,2,c
  2925  003EBA  D007               	goto	l3594
  2926                           
  2927                           ;I2Cdev.c: 73: IdleI2C();
  2928  003EBC  ECE1  F01B         	call	_IdleI2C	;wreg free
  2929                           
  2930                           ;I2Cdev.c: 74: SSPCON2bits.ACKDT=1;SSPCON2bits.ACKEN=1;while(SSPCON2bits.ACKEN);
  2931  003EC0  8AC5               	bsf	4037,5,c	;volatile
  2932  003EC2  88C5               	bsf	4037,4,c	;volatile
  2933  003EC4                     l130:
  2934  003EC4  A8C5               	btfss	4037,4,c	;volatile
  2935  003EC6  D007               	goto	l3600
  2936  003EC8  D7FD               	goto	l130
  2937  003ECA                     l3594:
  2938                           
  2939                           ;I2Cdev.c: 77: IdleI2C();
  2940  003ECA  ECE1  F01B         	call	_IdleI2C	;wreg free
  2941                           
  2942                           ;I2Cdev.c: 78: SSPCON2bits.ACKDT=0;SSPCON2bits.ACKEN=1;while(SSPCON2bits.ACKEN);
  2943  003ECE  9AC5               	bcf	4037,5,c	;volatile
  2944  003ED0  88C5               	bsf	4037,4,c	;volatile
  2945  003ED2                     l134:
  2946  003ED2  B8C5               	btfsc	4037,4,c	;volatile
  2947  003ED4  D7FE               	goto	l134
  2948  003ED6                     l3600:
  2949  003ED6  2A12               	incf	I2Cdev_readBytes@count,f,c
  2950  003ED8                     l3602:
  2951  003ED8  5008               	movf	I2Cdev_readBytes@length,w,c
  2952  003EDA  6E0B               	movwf	??_I2Cdev_readBytes& (0+255),c
  2953  003EDC  6A0C               	clrf	(??_I2Cdev_readBytes+1)& (0+255),c
  2954  003EDE  C012  F00D         	movff	I2Cdev_readBytes@count,??_I2Cdev_readBytes+2
  2955  003EE2  6A0E               	clrf	(??_I2Cdev_readBytes+3)& (0+255),c
  2956  003EE4  BE0D               	btfsc	(??_I2Cdev_readBytes+2)& (0+255),7,c
  2957  003EE6  060E               	decf	(??_I2Cdev_readBytes+3)& (0+255),f,c
  2958  003EE8  500E               	movf	??_I2Cdev_readBytes+3,w,c
  2959  003EEA  0A80               	xorlw	128
  2960  003EEC  6E0F               	movwf	(??_I2Cdev_readBytes+4)& (0+255),c
  2961  003EEE  500B               	movf	??_I2Cdev_readBytes,w,c
  2962  003EF0  5C0D               	subwf	??_I2Cdev_readBytes+2,w,c
  2963  003EF2  500C               	movf	??_I2Cdev_readBytes+1,w,c
  2964  003EF4  0A80               	xorlw	128
  2965  003EF6  580F               	subwfb	(??_I2Cdev_readBytes+4)& (0+255),w,c
  2966  003EF8  A0D8               	btfss	status,0,c
  2967  003EFA  D7B3               	goto	l3582
  2968                           
  2969                           ;I2Cdev.c: 79: }
  2970                           ;I2Cdev.c: 80: }
  2971                           ;I2Cdev.c: 83: IdleI2C();
  2972  003EFC  ECE1  F01B         	call	_IdleI2C	;wreg free
  2973                           
  2974                           ;I2Cdev.c: 84: SSPCON2bits.PEN=1;while(SSPCON2bits.PEN);
  2975  003F00  84C5               	bsf	4037,2,c	;volatile
  2976  003F02                     l138:
  2977  003F02  B4C5               	btfsc	4037,2,c	;volatile
  2978  003F04  D7FE               	goto	l138
  2979                           
  2980                           ;I2Cdev.c: 86: return count;
  2981  003F06  5012               	movf	I2Cdev_readBytes@count,w,c
  2982  003F08  0012               	return	
  2983  003F0A  FFFF               	dw	65535	; errata NOP
  2984  003F0C                     __end_of_I2Cdev_readBytes:
  2985                           	opt stack 0
  2986                           tblptru	equ	0xFF8
  2987                           prodh	equ	0xFF4
  2988                           prodl	equ	0xFF3
  2989                           postinc0	equ	0xFEE
  2990                           wreg	equ	0xFE8
  2991                           indf2	equ	0xFDF
  2992                           postinc2	equ	0xFDE
  2993                           postdec2	equ	0xFDD
  2994                           fsr2h	equ	0xFDA
  2995                           fsr2l	equ	0xFD9
  2996                           status	equ	0xFD8
  2997                           
  2998 ;; *************** function ___wmul *****************
  2999 ;; Defined at:
  3000 ;;		line 15 in file "/Applications/microchip/xc8/v1.32/sources/common/Umul16.c"
  3001 ;; Parameters:    Size  Location     Type
  3002 ;;  multiplier      2    0[COMRAM] unsigned int 
  3003 ;;  multiplicand    2    2[COMRAM] unsigned int 
  3004 ;; Auto vars:     Size  Location     Type
  3005 ;;  product         2    4[COMRAM] unsigned int 
  3006 ;; Return value:  Size  Location     Type
  3007 ;;                  2    0[COMRAM] unsigned int 
  3008 ;; Registers used:
  3009 ;;		wreg, status,2, status,0, prodl, prodh
  3010 ;; Tracked objects:
  3011 ;;		On entry : 0/0
  3012 ;;		On exit  : 0/0
  3013 ;;		Unchanged: 0/0
  3014 ;; Data sizes:     COMRAM   BANK0   BANK1   BANK2   BANK3   BANK4   BANK5
  3015 ;;      Params:         4       0       0       0       0       0       0
  3016 ;;      Locals:         2       0       0       0       0       0       0
  3017 ;;      Temps:          0       0       0       0       0       0       0
  3018 ;;      Totals:         6       0       0       0       0       0       0
  3019 ;;Total ram usage:        6 bytes
  3020 ;; Hardware stack levels used:    1
  3021 ;; This function calls:
  3022 ;;		Nothing
  3023 ;; This function is called by:
  3024 ;;		_I2Cdev_readBytes
  3025 ;;		_I2Cdev_readWords
  3026 ;; This function uses a non-reentrant model
  3027 ;;
  3028                           
  3029                           	psect	text25
  3030  003966                     __ptext25:
  3031                           	opt stack 0
  3032  003966                     ___wmul:
  3033                           	opt stack 24
  3034                           
  3035                           ;incstack = 0
  3036  003966  FFFF               	dw	65535
  3037  003968  5001               	movf	___wmul@multiplier,w,c
  3038  00396A  0203               	mulwf	___wmul@multiplicand,c
  3039  00396C  CFF3 F005          	movff	prodl,___wmul@product
  3040  003970  CFF4 F006          	movff	prodh,___wmul@product+1
  3041  003974  5001               	movf	___wmul@multiplier,w,c
  3042  003976  0204               	mulwf	___wmul@multiplicand+1,c
  3043  003978  50F3               	movf	prodl,w,c
  3044  00397A  2606               	addwf	___wmul@product+1,f,c
  3045  00397C  5002               	movf	___wmul@multiplier+1,w,c
  3046  00397E  0203               	mulwf	___wmul@multiplicand,c
  3047  003980  50F3               	movf	prodl,w,c
  3048  003982  2606               	addwf	___wmul@product+1,f,c
  3049  003984  C005  F001         	movff	___wmul@product,?___wmul
  3050  003988  C006  F002         	movff	___wmul@product+1,?___wmul+1
  3051  00398C  0012               	return	
  3052  00398E  FFFF               	dw	65535	; errata NOP
  3053  003990                     __end_of___wmul:
  3054                           	opt stack 0
  3055                           tblptru	equ	0xFF8
  3056                           prodh	equ	0xFF4
  3057                           prodl	equ	0xFF3
  3058                           postinc0	equ	0xFEE
  3059                           wreg	equ	0xFE8
  3060                           indf2	equ	0xFDF
  3061                           postinc2	equ	0xFDE
  3062                           postdec2	equ	0xFDD
  3063                           fsr2h	equ	0xFDA
  3064                           fsr2l	equ	0xFD9
  3065                           status	equ	0xFD8
  3066                           
  3067 ;; *************** function _WriteI2C *****************
  3068 ;; Defined at:
  3069 ;;		line 12 in file "/Applications/microchip/xc8/v1.32/sources/pic18/plib/i2c/i2c_writ.c"
  3070 ;; Parameters:    Size  Location     Type
  3071 ;;  data_out        1    wreg     unsigned char 
  3072 ;; Auto vars:     Size  Location     Type
  3073 ;;  data_out        1    2[COMRAM] unsigned char 
  3074 ;; Return value:  Size  Location     Type
  3075 ;;                  1    wreg      char 
  3076 ;; Registers used:
  3077 ;;		wreg, status,2, status,0, cstack
  3078 ;; Tracked objects:
  3079 ;;		On entry : 0/0
  3080 ;;		On exit  : 0/0
  3081 ;;		Unchanged: 0/0
  3082 ;; Data sizes:     COMRAM   BANK0   BANK1   BANK2   BANK3   BANK4   BANK5
  3083 ;;      Params:         0       0       0       0       0       0       0
  3084 ;;      Locals:         1       0       0       0       0       0       0
  3085 ;;      Temps:          1       0       0       0       0       0       0
  3086 ;;      Totals:         2       0       0       0       0       0       0
  3087 ;;Total ram usage:        2 bytes
  3088 ;; Hardware stack levels used:    1
  3089 ;; Hardware stack levels required when called:    1
  3090 ;; This function calls:
  3091 ;;		_IdleI2C
  3092 ;; This function is called by:
  3093 ;;		_I2Cdev_readBytes
  3094 ;;		_I2Cdev_writeBytes
  3095 ;;		_I2Cdev_readWords
  3096 ;;		_I2Cdev_writeWords
  3097 ;; This function uses a non-reentrant model
  3098 ;;
  3099                           
  3100                           	psect	text26
  3101  003B12                     __ptext26:
  3102                           	opt stack 0
  3103  003B12                     _WriteI2C:
  3104                           	opt stack 23
  3105                           
  3106                           ;incstack = 0
  3107  003B12  FFFF               	dw	65535
  3108                           
  3109                           ;WriteI2C@data_out stored from wreg
  3110  003B14  6E03               	movwf	WriteI2C@data_out,c
  3111  003B16  C003  FFC9         	movff	WriteI2C@data_out,4041	;volatile
  3112  003B1A  BEC6               	btfsc	4038,7,c	;volatile
  3113  003B1C  D02C               	goto	l1292
  3114                           
  3115                           ;	Return value of _WriteI2C is never used
  3116  003B1E  CFC6 F002          	movff	4038,??_WriteI2C	;volatile
  3117  003B22  0E0F               	movlw	15
  3118  003B24  1602               	andwf	??_WriteI2C,f,c
  3119  003B26  5002               	movf	??_WriteI2C,w,c
  3120  003B28  0A08               	xorlw	8
  3121  003B2A  B4D8               	btfsc	status,2,c
  3122  003B2C  D00F               	goto	l3542
  3123  003B2E  CFC6 F002          	movff	4038,??_WriteI2C	;volatile
  3124  003B32  0E0F               	movlw	15
  3125  003B34  1602               	andwf	??_WriteI2C,f,c
  3126  003B36  5002               	movf	??_WriteI2C,w,c
  3127  003B38  0A0B               	xorlw	11
  3128  003B3A  B4D8               	btfsc	status,2,c
  3129  003B3C  D007               	goto	l3542
  3130  003B3E  88C6               	bsf	4038,4,c	;volatile
  3131  003B40                     l1295:
  3132  003B40  A69E               	btfss	3998,3,c	;volatile
  3133  003B42  D7FE               	goto	l1295
  3134  003B44  B4C7               	btfsc	4039,2,c	;volatile
  3135  003B46  D017               	goto	l1292
  3136  003B48  50C7               	movf	4039,w,c	;volatile
  3137  003B4A  D015               	goto	l1292
  3138  003B4C                     l3542:
  3139  003B4C  CFC6 F002          	movff	4038,??_WriteI2C	;volatile
  3140  003B50  0E0F               	movlw	15
  3141  003B52  1602               	andwf	??_WriteI2C,f,c
  3142  003B54  5002               	movf	??_WriteI2C,w,c
  3143  003B56  0A08               	xorlw	8
  3144  003B58  B4D8               	btfsc	status,2,c
  3145  003B5A  D008               	goto	l1304
  3146  003B5C  CFC6 F002          	movff	4038,??_WriteI2C	;volatile
  3147  003B60  0E0F               	movlw	15
  3148  003B62  1602               	andwf	??_WriteI2C,f,c
  3149  003B64  5002               	movf	??_WriteI2C,w,c
  3150  003B66  0A0B               	xorlw	11
  3151  003B68  A4D8               	btfss	status,2,c
  3152  003B6A  D005               	goto	l1292
  3153  003B6C                     l1304:
  3154  003B6C  B0C7               	btfsc	4039,0,c	;volatile
  3155  003B6E  D7FE               	goto	l1304
  3156  003B70  ECE1  F01B         	call	_IdleI2C	;wreg free
  3157  003B74  50C5               	movf	4037,w,c	;volatile
  3158  003B76                     l1292:
  3159  003B76  0012               	return	
  3160  003B78  FFFF               	dw	65535	; errata NOP
  3161  003B7A                     __end_of_WriteI2C:
  3162                           	opt stack 0
  3163                           tblptru	equ	0xFF8
  3164                           prodh	equ	0xFF4
  3165                           prodl	equ	0xFF3
  3166                           postinc0	equ	0xFEE
  3167                           wreg	equ	0xFE8
  3168                           indf2	equ	0xFDF
  3169                           postinc2	equ	0xFDE
  3170                           postdec2	equ	0xFDD
  3171                           fsr2h	equ	0xFDA
  3172                           fsr2l	equ	0xFD9
  3173                           status	equ	0xFD8
  3174                           
  3175 ;; *************** function _IdleI2C *****************
  3176 ;; Defined at:
  3177 ;;		line 24 in file "/Applications/microchip/xc8/v1.32/sources/pic18/plib/i2c/i2c_idle.c"
  3178 ;; Parameters:    Size  Location     Type
  3179 ;;		None
  3180 ;; Auto vars:     Size  Location     Type
  3181 ;;		None
  3182 ;; Return value:  Size  Location     Type
  3183 ;;		None               void
  3184 ;; Registers used:
  3185 ;;		wreg, status,2, status,0
  3186 ;; Tracked objects:
  3187 ;;		On entry : 0/0
  3188 ;;		On exit  : 0/0
  3189 ;;		Unchanged: 0/0
  3190 ;; Data sizes:     COMRAM   BANK0   BANK1   BANK2   BANK3   BANK4   BANK5
  3191 ;;      Params:         0       0       0       0       0       0       0
  3192 ;;      Locals:         0       0       0       0       0       0       0
  3193 ;;      Temps:          1       0       0       0       0       0       0
  3194 ;;      Totals:         1       0       0       0       0       0       0
  3195 ;;Total ram usage:        1 bytes
  3196 ;; Hardware stack levels used:    1
  3197 ;; This function calls:
  3198 ;;		Nothing
  3199 ;; This function is called by:
  3200 ;;		_I2Cdev_readBytes
  3201 ;;		_I2Cdev_writeBytes
  3202 ;;		_WriteI2C
  3203 ;;		_I2Cdev_readWords
  3204 ;;		_I2Cdev_writeWords
  3205 ;; This function uses a non-reentrant model
  3206 ;;
  3207                           
  3208                           	psect	text27
  3209  0037C2                     __ptext27:
  3210                           	opt stack 0
  3211  0037C2                     _IdleI2C:
  3212                           	opt stack 23
  3213                           
  3214                           ;incstack = 0
  3215  0037C2  FFFF               	dw	65535
  3216  0037C4                     l3518:
  3217  0037C4  CFC5 F001          	movff	4037,??_IdleI2C	;volatile
  3218  0037C8  0E1F               	movlw	31
  3219  0037CA  1601               	andwf	??_IdleI2C,f,c
  3220  0037CC  B4D8               	btfsc	status,2,c
  3221  0037CE  B4C7               	btfsc	4039,2,c	;volatile
  3222  0037D0  D7F9               	goto	l3518
  3223  0037D2  0012               	return	
  3224  0037D4  FFFF               	dw	65535	; errata NOP
  3225  0037D6                     __end_of_IdleI2C:
  3226                           	opt stack 0
  3227                           tblptru	equ	0xFF8
  3228                           prodh	equ	0xFF4
  3229                           prodl	equ	0xFF3
  3230                           postinc0	equ	0xFEE
  3231                           wreg	equ	0xFE8
  3232                           indf2	equ	0xFDF
  3233                           postinc2	equ	0xFDE
  3234                           postdec2	equ	0xFDD
  3235                           fsr2h	equ	0xFDA
  3236                           fsr2l	equ	0xFD9
  3237                           status	equ	0xFD8
  3238                           
  3239 ;; *************** function _ReadI2C *****************
  3240 ;; Defined at:
  3241 ;;		line 11 in file "/Applications/microchip/xc8/v1.32/sources/pic18/plib/i2c/i2c_read.c"
  3242 ;; Parameters:    Size  Location     Type
  3243 ;;		None
  3244 ;; Auto vars:     Size  Location     Type
  3245 ;;		None
  3246 ;; Return value:  Size  Location     Type
  3247 ;;                  1    wreg      unsigned char 
  3248 ;; Registers used:
  3249 ;;		wreg, status,2, status,0
  3250 ;; Tracked objects:
  3251 ;;		On entry : 0/0
  3252 ;;		On exit  : 0/0
  3253 ;;		Unchanged: 0/0
  3254 ;; Data sizes:     COMRAM   BANK0   BANK1   BANK2   BANK3   BANK4   BANK5
  3255 ;;      Params:         0       0       0       0       0       0       0
  3256 ;;      Locals:         0       0       0       0       0       0       0
  3257 ;;      Temps:          1       0       0       0       0       0       0
  3258 ;;      Totals:         1       0       0       0       0       0       0
  3259 ;;Total ram usage:        1 bytes
  3260 ;; Hardware stack levels used:    1
  3261 ;; This function calls:
  3262 ;;		Nothing
  3263 ;; This function is called by:
  3264 ;;		_I2Cdev_readBytes
  3265 ;;		_I2Cdev_readWords
  3266 ;; This function uses a non-reentrant model
  3267 ;;
  3268                           
  3269                           	psect	text28
  3270  0039BA                     __ptext28:
  3271                           	opt stack 0
  3272  0039BA                     _ReadI2C:
  3273                           	opt stack 24
  3274                           
  3275                           ;incstack = 0
  3276  0039BA  FFFF               	dw	65535
  3277  0039BC  CFC6 F001          	movff	4038,??_ReadI2C	;volatile
  3278  0039C0  0E0F               	movlw	15
  3279  0039C2  1601               	andwf	??_ReadI2C,f,c
  3280  0039C4  5001               	movf	??_ReadI2C,w,c
  3281  0039C6  0A08               	xorlw	8
  3282  0039C8  B4D8               	btfsc	status,2,c
  3283  0039CA  D007               	goto	l1270
  3284  0039CC  CFC6 F001          	movff	4038,??_ReadI2C	;volatile
  3285  0039D0  0E0F               	movlw	15
  3286  0039D2  1601               	andwf	??_ReadI2C,f,c
  3287  0039D4  5001               	movf	??_ReadI2C,w,c
  3288  0039D6  0A0B               	xorlw	11
  3289  0039D8  B4D8               	btfsc	status,2,c
  3290  0039DA                     l1270:
  3291  0039DA  86C5               	bsf	4037,3,c	;volatile
  3292  0039DC                     l1271:
  3293  0039DC  A0C7               	btfss	4039,0,c	;volatile
  3294  0039DE  D7FE               	goto	l1271
  3295  0039E0  50C9               	movf	4041,w,c	;volatile
  3296  0039E2  0012               	return	
  3297  0039E4  FFFF               	dw	65535	; errata NOP
  3298  0039E6                     __end_of_ReadI2C:
  3299                           	opt stack 0
  3300                           tblptru	equ	0xFF8
  3301                           prodh	equ	0xFF4
  3302                           prodl	equ	0xFF3
  3303                           postinc0	equ	0xFEE
  3304                           wreg	equ	0xFE8
  3305                           indf2	equ	0xFDF
  3306                           postinc2	equ	0xFDE
  3307                           postdec2	equ	0xFDD
  3308                           fsr2h	equ	0xFDA
  3309                           fsr2l	equ	0xFD9
  3310                           status	equ	0xFD8
  3311                           
  3312 ;; *************** function _CAN_Transmit *****************
  3313 ;; Defined at:
  3314 ;;		line 18 in file "main.c"
  3315 ;; Parameters:    Size  Location     Type
  3316 ;;		None
  3317 ;; Auto vars:     Size  Location     Type
  3318 ;;  canId           2    3[COMRAM] unsigned int 
  3319 ;; Return value:  Size  Location     Type
  3320 ;;		None               void
  3321 ;; Registers used:
  3322 ;;		wreg, status,2, status,0
  3323 ;; Tracked objects:
  3324 ;;		On entry : 0/0
  3325 ;;		On exit  : 0/0
  3326 ;;		Unchanged: 0/0
  3327 ;; Data sizes:     COMRAM   BANK0   BANK1   BANK2   BANK3   BANK4   BANK5
  3328 ;;      Params:         0       0       0       0       0       0       0
  3329 ;;      Locals:         2       0       0       0       0       0       0
  3330 ;;      Temps:          3       0       0       0       0       0       0
  3331 ;;      Totals:         5       0       0       0       0       0       0
  3332 ;;Total ram usage:        5 bytes
  3333 ;; Hardware stack levels used:    1
  3334 ;; This function calls:
  3335 ;;		Nothing
  3336 ;; This function is called by:
  3337 ;;		_main
  3338 ;; This function uses a non-reentrant model
  3339 ;;
  3340                           
  3341                           	psect	text29
  3342  003BE2                     __ptext29:
  3343                           	opt stack 0
  3344  003BE2                     _CAN_Transmit:
  3345                           	opt stack 30
  3346                           
  3347                           ;incstack = 0
  3348  003BE2  FFFF               	dw	65535
  3349                           
  3350                           ;main.c: 20: uint16_t canId = (1);
  3351  003BE4  0E00               	movlw	0
  3352  003BE6  6E05               	movwf	CAN_Transmit@canId+1,c
  3353  003BE8  0E01               	movlw	1
  3354  003BEA  6E04               	movwf	CAN_Transmit@canId,c
  3355                           
  3356                           ;main.c: 21: canId = (canId<<5);
  3357  003BEC  C004  F001         	movff	CAN_Transmit@canId,??_CAN_Transmit
  3358  003BF0  C005  F002         	movff	CAN_Transmit@canId+1,??_CAN_Transmit+1
  3359  003BF4  0E05               	movlw	5
  3360  003BF6                     u695:
  3361  003BF6  90D8               	bcf	status,0,c
  3362  003BF8  3601               	rlcf	??_CAN_Transmit,f,c
  3363  003BFA  3602               	rlcf	??_CAN_Transmit+1,f,c
  3364  003BFC  2EE8               	decfsz	wreg,f,c
  3365  003BFE  D7FB               	goto	u695
  3366  003C00  C001  F004         	movff	??_CAN_Transmit,CAN_Transmit@canId
  3367  003C04  C002  F005         	movff	??_CAN_Transmit+1,CAN_Transmit@canId+1
  3368  003C08                     l1180:
  3369  003C08  CF40 F001          	movff	3904,??_CAN_Transmit
  3370  003C0C  B601               	btfsc	??_CAN_Transmit,3,c
  3371  003C0E  D7FC               	goto	l1180
  3372                           
  3373                           ;main.c: 26: TXB0SIDL = (uint8_t)(canId & 0x00E0);
  3374  003C10  C004  F001         	movff	CAN_Transmit@canId,??_CAN_Transmit
  3375  003C14  0EE0               	movlw	224
  3376  003C16  1601               	andwf	??_CAN_Transmit,f,c
  3377  003C18  C001  FF42         	movff	??_CAN_Transmit,3906
  3378                           
  3379                           ;main.c: 27: TXB0SIDH = (uint8_t)((canId>>8)& 0x00FF);
  3380  003C1C  C005  F001         	movff	CAN_Transmit@canId+1,??_CAN_Transmit
  3381  003C20  C001  F002         	movff	??_CAN_Transmit,??_CAN_Transmit+1
  3382  003C24  6A03               	clrf	(??_CAN_Transmit+2)& (0+255),c
  3383  003C26  C002  FF41         	movff	??_CAN_Transmit+1,3905
  3384                           
  3385                           ;main.c: 31: TXB0DLC = 0x08;
  3386  003C2A  0E08               	movlw	8
  3387  003C2C  CFE8 FF45          	movff	wreg,3909
  3388                           
  3389                           ;main.c: 34: TXB0D0 = sendData[0];
  3390  003C30  C033  FF46         	movff	_sendData,3910	;volatile
  3391                           
  3392                           ;main.c: 35: TXB0D1 = sendData[1];
  3393  003C34  C034  FF47         	movff	_sendData+1,3911	;volatile
  3394                           
  3395                           ;main.c: 36: TXB0D2 = sendData[2];
  3396  003C38  C035  FF48         	movff	_sendData+2,3912	;volatile
  3397                           
  3398                           ;main.c: 37: TXB0D3 = sendData[3];
  3399  003C3C  C036  FF49         	movff	_sendData+3,3913	;volatile
  3400                           
  3401                           ;main.c: 38: TXB0D4 = sendData[4];
  3402  003C40  C037  FF4A         	movff	_sendData+4,3914	;volatile
  3403                           
  3404                           ;main.c: 39: TXB0D5 = sendData[5];
  3405  003C44  C038  FF4B         	movff	_sendData+5,3915	;volatile
  3406                           
  3407                           ;main.c: 40: TXB0D6 = sendData[6];
  3408  003C48  C039  FF4C         	movff	_sendData+6,3916	;volatile
  3409                           
  3410                           ;main.c: 41: TXB0D7 = sendData[7];
  3411  003C4C  C03A  FF4D         	movff	_sendData+7,3917	;volatile
  3412                           
  3413                           ;main.c: 44: TXB0CON = (1<<3);
  3414  003C50  0E08               	movlw	8
  3415  003C52  CFE8 FF40          	movff	wreg,3904
  3416  003C56  0012               	return	
  3417  003C58  FFFF               	dw	65535	; errata NOP
  3418  003C5A                     __end_of_CAN_Transmit:
  3419                           	opt stack 0
  3420  003C5A  FFFF               	dw	65535	; assembler added errata NOP
  3421                           tblptru	equ	0xFF8
  3422                           prodh	equ	0xFF4
  3423                           prodl	equ	0xFF3
  3424                           postinc0	equ	0xFEE
  3425                           wreg	equ	0xFE8
  3426                           indf2	equ	0xFDF
  3427                           postinc2	equ	0xFDE
  3428                           postdec2	equ	0xFDD
  3429                           fsr2h	equ	0xFDA
  3430                           fsr2l	equ	0xFD9
  3431                           status	equ	0xFD8
  3432                           tblptru	equ	0xFF8
  3433                           prodh	equ	0xFF4
  3434                           prodl	equ	0xFF3
  3435                           postinc0	equ	0xFEE
  3436                           wreg	equ	0xFE8
  3437                           indf2	equ	0xFDF
  3438                           postinc2	equ	0xFDE
  3439                           postdec2	equ	0xFDD
  3440                           fsr2h	equ	0xFDA
  3441                           fsr2l	equ	0xFD9
  3442                           status	equ	0xFD8
  3443                           
  3444                           	psect	rparam
  3445  0000                     tblptru	equ	0xFF8
  3446                           prodh	equ	0xFF4
  3447                           prodl	equ	0xFF3
  3448                           postinc0	equ	0xFEE
  3449                           wreg	equ	0xFE8
  3450                           indf2	equ	0xFDF
  3451                           postinc2	equ	0xFDE
  3452                           postdec2	equ	0xFDD
  3453                           fsr2h	equ	0xFDA
  3454                           fsr2l	equ	0xFD9
  3455                           status	equ	0xFD8


Data Sizes:
    Strings     0
    Constant    0
    Data        0
    BSS         103
    Persistent  0
    Stack       0

Auto Spaces:
    Space          Size  Autos    Used
    COMRAM           95     50      95
    BANK0           160      0      58
    BANK1           256      0       0
    BANK2           256      0       0
    BANK3           256      0       0
    BANK4           256      0       0
    BANK5           256      0       0

Pointer List with Targets:

    sp__convertFrom16To8	PTR unsigned char  size(2) Largest target is 2
		 -> convertFrom16To8@arrayData(COMRAM[2]), 

    MPU6050_getMotion6@gz	PTR int  size(2) Largest target is 2
		 -> main@gz(COMRAM[2]), 

    MPU6050_getMotion6@gy	PTR int  size(2) Largest target is 2
		 -> main@gy(COMRAM[2]), 

    MPU6050_getMotion6@gx	PTR int  size(2) Largest target is 2
		 -> main@gx(COMRAM[2]), 

    MPU6050_getMotion6@az	PTR int  size(2) Largest target is 2
		 -> main@az(COMRAM[2]), 

    MPU6050_getMotion6@ay	PTR int  size(2) Largest target is 2
		 -> main@ay(COMRAM[2]), 

    MPU6050_getMotion6@ax	PTR int  size(2) Largest target is 2
		 -> main@ax(COMRAM[2]), 

    I2Cdev_writeBytes@data	PTR unsigned char  size(2) Largest target is 1
		 -> NULL(NULL[0]), I2Cdev_writeByte@data(COMRAM[1]), 

    I2Cdev_readByte@data	PTR unsigned char  size(2) Largest target is 15
		 -> mpu6050(COMRAM[15]), I2Cdev_writeBits@b(COMRAM[1]), I2Cdev_writeBit@b(COMRAM[1]), I2Cdev_readBits@b(COMRAM[1]), 
		 -> I2Cdev_readBit@b(COMRAM[1]), 

    I2Cdev_readBytes@data	PTR unsigned char  size(2) Largest target is 15
		 -> I2C_Bytes(COMRAM[3]), mpu6050(COMRAM[15]), I2Cdev_writeBits@b(COMRAM[1]), I2Cdev_writeBit@b(COMRAM[1]), 
		 -> I2Cdev_readBits@b(COMRAM[1]), I2Cdev_readBit@b(COMRAM[1]), 


Critical Paths under _main in COMRAM

    _setupCANTxRx->_Delay10KTCYx
    _CAN_Init->_CAN_SetMode
    _MPU6050_initialize->_MPU6050_setSleepEnabled
    _MPU6050_setSleepEnabled->_I2Cdev_writeBit
    _I2Cdev_writeBit->_I2Cdev_readByte
    _MPU6050_setFullScaleGyroRange->_I2Cdev_writeBits
    _MPU6050_setFullScaleAccelRange->_I2Cdev_writeBits
    _MPU6050_setClockSource->_I2Cdev_writeBits
    _I2Cdev_writeBits->_I2Cdev_readByte
    _I2Cdev_writeByte->_I2Cdev_writeBytes
    _I2Cdev_writeBytes->_WriteI2C
    _I2Cdev_readByte->_I2Cdev_readBytes
    _initI2C_USART->_OpenUSART
    _flashLED->_delayzz
    _MPU6050_getMotion6->_I2Cdev_readBytes
    _I2Cdev_readBytes->___wmul
    _WriteI2C->_IdleI2C

Critical Paths under _main in BANK0

    None.

Critical Paths under _main in BANK1

    None.

Critical Paths under _main in BANK2

    None.

Critical Paths under _main in BANK3

    None.

Critical Paths under _main in BANK4

    None.

Critical Paths under _main in BANK5

    None.

Call Graph Tables:

 ---------------------------------------------------------------------------------
 (Depth) Function   	        Calls       Base Space   Used Autos Params    Refs
 ---------------------------------------------------------------------------------
 (0) _main                                                15    15      0   71141
                                             35 COMRAM    15    15      0
                       _CAN_Transmit
                 _MPU6050_getMotion6
                   _convertFrom16To8
                           _flashLED
                      _initI2C_USART
                        _initMPU6050
                       _setupCANTxRx
 ---------------------------------------------------------------------------------
 (1) _setupCANTxRx                                         0     0      0      45
                           _CAN_Init
                       _Delay10KTCYx
 ---------------------------------------------------------------------------------
 (2) _CAN_Init                                             0     0      0      30
                        _CAN_SetMode
 ---------------------------------------------------------------------------------
 (3) _CAN_SetMode                                          1     1      0      30
                                              0 COMRAM     1     1      0
 ---------------------------------------------------------------------------------
 (1) _initMPU6050                                          0     0      0   65001
                       _Delay10KTCYx
                            _MPU6050
                 _MPU6050_initialize
 ---------------------------------------------------------------------------------
 (2) _MPU6050_initialize                                   0     0      0   64971
             _MPU6050_setClockSource
     _MPU6050_setFullScaleAccelRange
      _MPU6050_setFullScaleGyroRange
            _MPU6050_setSleepEnabled
 ---------------------------------------------------------------------------------
 (3) _MPU6050_setSleepEnabled                              1     1      0   21018
                                             34 COMRAM     1     1      0
                    _I2Cdev_writeBit
 ---------------------------------------------------------------------------------
 (4) _I2Cdev_writeBit                                     12     9      3   20996
                                             22 COMRAM    12     9      3
                    _I2Cdev_readByte
                   _I2Cdev_writeByte
 ---------------------------------------------------------------------------------
 (3) _MPU6050_setFullScaleGyroRange                        1     1      0   14651
                                             32 COMRAM     1     1      0
                   _I2Cdev_writeBits
 ---------------------------------------------------------------------------------
 (3) _MPU6050_setFullScaleAccelRange                       1     1      0   14651
                                             32 COMRAM     1     1      0
                   _I2Cdev_writeBits
 ---------------------------------------------------------------------------------
 (3) _MPU6050_setClockSource                               1     1      0   14651
                                             32 COMRAM     1     1      0
                   _I2Cdev_writeBits
 ---------------------------------------------------------------------------------
 (4) _I2Cdev_writeBits                                    10     6      4   14629
                                             22 COMRAM    10     6      4
                    _I2Cdev_readByte
                   _I2Cdev_writeByte
 ---------------------------------------------------------------------------------
 (5) _I2Cdev_writeByte                                     3     1      2    3350
                                              9 COMRAM     3     1      2
                  _I2Cdev_writeBytes
 ---------------------------------------------------------------------------------
 (6) _I2Cdev_writeBytes                                    6     2      4     633
                                              3 COMRAM     6     2      4
                            _IdleI2C
                           _WriteI2C
 ---------------------------------------------------------------------------------
 (5) _I2Cdev_readByte                                      4     1      3    7360
                                             18 COMRAM     4     1      3
                   _I2Cdev_readBytes
 ---------------------------------------------------------------------------------
 (2) _MPU6050                                              1     1      0      15
                                              0 COMRAM     1     1      0
 ---------------------------------------------------------------------------------
 (1) _initI2C_USART                                        0     0      0     251
                       _Delay10KTCYx
                            _OpenI2C
                          _OpenUSART
 ---------------------------------------------------------------------------------
 (2) _OpenUSART                                            3     1      2     163
                                              0 COMRAM     3     1      2
 ---------------------------------------------------------------------------------
 (2) _OpenI2C                                              2     1      1      73
                                              0 COMRAM     2     1      1
 ---------------------------------------------------------------------------------
 (2) _Delay10KTCYx                                         2     2      0      15
                                              0 COMRAM     2     2      0
 ---------------------------------------------------------------------------------
 (1) _flashLED                                             2     2      0      75
                                              4 COMRAM     2     2      0
                            _delayzz
 ---------------------------------------------------------------------------------
 (2) _delayzz                                              4     4      0      60
                                              0 COMRAM     4     4      0
 ---------------------------------------------------------------------------------
 (1) _convertFrom16To8                                     5     3      2     116
                                              0 COMRAM     5     3      2
 ---------------------------------------------------------------------------------
 (1) _MPU6050_getMotion6                                  14     2     12    5306
                                             18 COMRAM    14     2     12
                   _I2Cdev_readBytes
 ---------------------------------------------------------------------------------
 (6) _I2Cdev_readBytes                                    12     8      4    4538
                                              6 COMRAM    12     8      4
                            _IdleI2C
                            _ReadI2C
                           _WriteI2C
                             ___wmul
 ---------------------------------------------------------------------------------
 (7) ___wmul                                               6     2      4     477
                                              0 COMRAM     6     2      4
 ---------------------------------------------------------------------------------
 (7) _WriteI2C                                             2     2      0      22
                                              1 COMRAM     2     2      0
                            _IdleI2C
 ---------------------------------------------------------------------------------
 (8) _IdleI2C                                              1     1      0       0
                                              0 COMRAM     1     1      0
 ---------------------------------------------------------------------------------
 (7) _ReadI2C                                              1     1      0       0
                                              0 COMRAM     1     1      0
 ---------------------------------------------------------------------------------
 (1) _CAN_Transmit                                         5     5      0      45
                                              0 COMRAM     5     5      0
 ---------------------------------------------------------------------------------
 Estimated maximum stack depth 8
 ---------------------------------------------------------------------------------

 Call Graph Graphs:

 _main (ROOT)
   _CAN_Transmit
   _MPU6050_getMotion6
     _I2Cdev_readBytes
       _IdleI2C
       _ReadI2C
       _WriteI2C
         _IdleI2C
       ___wmul
   _convertFrom16To8
   _flashLED
     _delayzz
   _initI2C_USART
     _Delay10KTCYx
     _OpenI2C
     _OpenUSART
   _initMPU6050
     _Delay10KTCYx
     _MPU6050
     _MPU6050_initialize
       _MPU6050_setClockSource
         _I2Cdev_writeBits
           _I2Cdev_readByte
             _I2Cdev_readBytes
               _IdleI2C
               _ReadI2C
               _WriteI2C
                 _IdleI2C
               ___wmul
           _I2Cdev_writeByte
             _I2Cdev_writeBytes
               _IdleI2C
               _WriteI2C
                 _IdleI2C
       _MPU6050_setFullScaleAccelRange
         _I2Cdev_writeBits
           _I2Cdev_readByte
             _I2Cdev_readBytes
               _IdleI2C
               _ReadI2C
               _WriteI2C
                 _IdleI2C
               ___wmul
           _I2Cdev_writeByte
             _I2Cdev_writeBytes
               _IdleI2C
               _WriteI2C
                 _IdleI2C
       _MPU6050_setFullScaleGyroRange
         _I2Cdev_writeBits
           _I2Cdev_readByte
             _I2Cdev_readBytes
               _IdleI2C
               _ReadI2C
               _WriteI2C
                 _IdleI2C
               ___wmul
           _I2Cdev_writeByte
             _I2Cdev_writeBytes
               _IdleI2C
               _WriteI2C
                 _IdleI2C
       _MPU6050_setSleepEnabled
         _I2Cdev_writeBit
           _I2Cdev_readByte
             _I2Cdev_readBytes
               _IdleI2C
               _ReadI2C
               _WriteI2C
                 _IdleI2C
               ___wmul
           _I2Cdev_writeByte
             _I2Cdev_writeBytes
               _IdleI2C
               _WriteI2C
                 _IdleI2C
   _setupCANTxRx
     _CAN_Init
       _CAN_SetMode
     _Delay10KTCYx

 Address spaces:
Name               Size   Autos  Total    Cost      Usage
BIGRAM             5FF      0       0      16        0.0%
EEDATA             100      0       0       0        0.0%
BITBANK5           100      0       0      14        0.0%
BANK5              100      0       0      15        0.0%
BITBANK4           100      0       0      12        0.0%
BANK4              100      0       0      13        0.0%
BITBANK3           100      0       0      10        0.0%
BANK3              100      0       0      11        0.0%
BITBANK2           100      0       0       7        0.0%
BANK2              100      0       0       8        0.0%
BITBANK1           100      0       0       5        0.0%
BANK1              100      0       0       6        0.0%
BITBANK0            A0      0       0       3        0.0%
BANK0               A0      0      3A       4       36.2%
BITCOMRAM           5F      0       0       0        0.0%
COMRAM              5F     32      5F       1      100.0%
BITSFR_1             0      0       0      40        0.0%
SFR_1                0      0       0      40        0.0%
BITSFR               0      0       0      40        0.0%
SFR                  0      0       0      40        0.0%
STACK                0      0       0       2        0.0%
NULL                 0      0       0       0        0.0%
ABS                  0      0      99       9        0.0%
DATA                 0      0      99      17        0.0%
CODE                 0      0       0       0        0.0%


Microchip Technology PIC18 Macro Assembler V1.32 build 58300 
Symbol Table                                                                                   Thu Nov  5 23:17:15 2015

                                            __size_of_MPU6050_setClockSource 001E  
                                                                _SSPSTATbits 000FC7  
                                                                         _D1 0068  
                                                                         _D2 006C  
                                                                         _T2 007C  
                                                                         _dT 003F  
                                                                __CFG_BOR$ON 000000  
                                                        ___wmul@multiplicand 0003  
                                                               __CFG_CP0$OFF 000000  
                                                               __CFG_CP1$OFF 000000  
                                                               __CFG_CP2$OFF 000000  
                                                               __CFG_CP3$OFF 000000  
                                                                __CFG_OSC$HS 000000  
                                                                        l121 3E2C  
                                                                        l130 3EC4  
                                                                        l124 3E4C  
                                                                        l134 3ED2  
                                                                        l138 3F02  
                                                                        l235 3D60  
                                                                        l190 3A5E  
                                                                        l196 3AA8  
                                                               __CFG_CPB$OFF 000000  
                                                               __CFG_CPD$OFF 000000  
                                                                        u695 3BF6  
                                                               __CFG_BORV$25 000000  
                                                                        wreg 000FE8  
                                                       ??_MPU6050_initialize 0024  
                                                       __end_of_CAN_Transmit 3C5A  
                                                           _I2Cdev_writeBits 3CDA  
                                                              _initI2C_USART 39E6  
                                                           _I2Cdev_writeByte 386C  
                                                               __CFG_LVP$OFF 000000  
                                                               ?_initMPU6050 0001  
                                                            __end_of_MPU6050 37C2  
                                                               __CFG_WDT$OFF 000000  
                                                                       l1230 3AE2  
                                                                       l1231 3AEC  
                                                                       l1304 3B6C  
                                                                       l1232 3AEE  
                                                                       l1233 3AF8  
                                                                       l1234 3AFA  
                                                                       l1147 3A50  
                                                                       l1227 3AD6  
                                                                       l1180 3C08  
                                                                       l1236 3B0E  
                                                                       l1229 3AE0  
                                                                       l1270 39DA  
                                                                       l1271 39DC  
                                                                       l2232 3AD8  
                                                                       l2224 3ACA  
                                                                       l2170 3A4A  
                                                                       l1292 3B76  
                                                                       l2068 3808  
                                                                       l1541 3836  
                                                                       l1295 3B40  
                                                                       l2444 399A  
                                                                       l3600 3ED6  
                                                                       l3602 3ED8  
                                                                       l3620 3A7E  
                                                                       l3518 37C4  
                                                                       l3542 3B4C  
                                                                       l3626 3A9A  
                                                                       l3650 3C9A  
                                                                       l3652 3CC4  
                                                                       l3582 3E62  
                                                                       l3594 3ECA  
                                                                       l4960 3DB8  
                                                                       l4952 3D78  
                                                                       u1510 3D40  
                                                                       _OFF2 0070  
                                                                       u1504 3D22  
                                                                       u1505 3D1E  
                                                                       u1515 3D3C  
                                                                       u1375 3EB8  
                                                                       u1464 3C86  
                                                                       u1465 3C82  
                                                                       u1474 3CAE  
                                                                       u1475 3CA8  
                                                                       u1494 3D12  
                                                                       u1495 3D0E  
                                                                       u2487 3E12  
                                                                       u2497 383C  
                                                                       _TEMP 0057  
                                                               __CFG_PWRT$ON 000000  
                                                                       _mbar 0084  
                                                                       _main 3D64  
                                                                       fsr2h 000FDA  
                                                                       indf2 000FDF  
                                                                       fsr2l 000FD9  
                                                                       prodh 000FF4  
                                                                       prodl 000FF3  
                                                                       start 0002  
                                                            __end_of_IdleI2C 37D6  
                                                           __end_of_CAN_Init 3BE2  
                                                            __end_of_ReadI2C 39E6  
                                                            __end_of_OpenI2C 3944  
                                                          ?_convertFrom16To8 0001  
                                                          _I2Cdev_writeBytes 3A54  
                                                              __CFG_OSCS$OFF 000000  
                                                             MPU6050@address 0001  
                                                         ??_convertFrom16To8 0003  
                                                         ?_I2Cdev_writeBytes 0004  
                                                                      ?_main 0001  
                                                   __size_of_I2Cdev_readByte 001E  
                                                                      _RCSTA 000FAB  
                                                                      _SPBRG 000FAF  
                                                                      _TRISB 000F93  
                                                    I2Cdev_writeByte@devAddr 000C  
                                                      __size_of_Delay10KTCYx 001C  
                                                                      _TXSTA 000FAC  
                                                              __CFG_WRT0$OFF 000000  
                                                              __CFG_WRT1$OFF 000000  
                                                              __CFG_WRT2$OFF 000000  
                                                            __end_of_delayzz 3A54  
                                                              __CFG_WRT3$OFF 000000  
                                                             __CFG_EBTR0$OFF 000000  
                                                                      _Sens2 003B  
                                                             __CFG_EBTR1$OFF 000000  
                                                        ??_I2Cdev_writeBytes 0008  
                                                             __CFG_EBTR2$OFF 000000  
                                                             __CFG_EBTR3$OFF 000000  
                                                             ?_initI2C_USART 0001  
                                                              __CFG_STVR$OFF 000000  
                                                              __CFG_WRTB$OFF 000000  
                                                              __CFG_WRTC$OFF 000000  
                                         MPU6050_setFullScaleGyroRange@range 0021  
                                                              __CFG_WRTD$OFF 000000  
                                                       __size_of_CAN_SetMode 0018  
                                                             __CFG_EBTRB$OFF 000000  
                                                    I2Cdev_writeByte@regAddr 000A  
                                               MPU6050_setClockSource@source 0021  
                                                     _MPU6050_setClockSource 388A  
                                                                      _tempC 0087  
                                                                      status 000FD8  
                                                   __size_of_I2Cdev_writeBit 007E  
                                                  __end_of_I2Cdev_writeBytes 3AB2  
                                                            __initialization 3944  
                                                               __end_of_main 3E1E  
                                                               _Delay10KTCYx 3832  
                                                                     ??_main 0024  
                                                              __activetblptr 000002  
                                            ??_MPU6050_setFullScaleGyroRange 0021  
                                                                  ??_MPU6050 0001  
                                                      I2Cdev_readBytes@count 0012  
                                                    I2Cdev_writeBytes@length 0005  
                                                                     _CANCON 000F6F  
                                                           __end_of_WriteI2C 3B7A  
                                                                OpenI2C@slew 0001  
                                                   ?_MPU6050_setSleepEnabled 0001  
                                                                  ??_IdleI2C 0001  
                                                                     _RXB0D0 000F66  
                                                                     _RXB0D1 000F67  
                                                                     _RXB0D2 000F68  
                                                                     _RXB0D3 000F69  
                                                                     _RXB0D4 000F6A  
                                                                     _RXB0D5 000F6B  
                                                                     _RXB0D6 000F6C  
                                                                     _RXB0D7 000F6D  
                                                             __CFG_WDTPS$128 000000  
                                                                     _TXB0D0 000F46  
                                                                     _TXB0D1 000F47  
                                                                     _TXB0D2 000F48  
                                                                     _TXB0D3 000F49  
                                                                     _TXB0D4 000F4A  
                                                                     _TXB0D5 000F4B  
                                                                     _TXB0D6 000F4C  
                                                                     _TXB0D7 000F4D  
                                                                     _SSPADD 000FC8  
                                                                     _SSPBUF 000FC9  
                                                                  ??_ReadI2C 0001  
                                                                  ??_OpenI2C 0002  
                                                                     _Offset 0074  
                                                           __end_of_flashLED 39BA  
                                                         __size_of_OpenUSART 0060  
                                                   __end_of_I2Cdev_readBytes 3F0C  
                                                                     ___wmul 3966  
                                                                 _Resolution 0043  
                                                                     clear_0 394A  
                                                                     clear_1 3956  
                                                                  ??_delayzz 0001  
                                                                     main@ax 0025  
                                                                     main@ay 0031  
                                                                     main@az 0027  
                                                                     main@gx 0029  
                                                                     main@gy 002B  
                                                                     main@gz 002D  
                                                      __size_of_CAN_Transmit 0078  
                                                            ??_initI2C_USART 0004  
                                                           I2Cdev_writeBit@b 0022  
                                                                     tblptru 000FF8  
                                                                  ?_CAN_Init 0001  
                                                          ??_I2Cdev_readByte 0016  
                                                       __size_of_initMPU6050 0016  
                                                                 __accesstop 0060  
                                                    __end_of__initialization 395C  
                                                     I2Cdev_readByte@devAddr 0016  
                                             MPU6050_setSleepEnabled@enabled 0023  
                                                         CAN_SetMode@canMode 0001  
                                                     I2Cdev_readByte@regAddr 0013  
                                                 __size_of_I2Cdev_writeBytes 005E  
                                                             __pcstackCOMRAM 0001  
                                                   __end_of_I2Cdev_writeBits 3D64  
                                                               _CAN_Transmit 3BE2  
                                                   __end_of_I2Cdev_writeByte 388A  
                                                          ??_I2Cdev_writeBit 001A  
                                                        _I2Cdev_writeBit$411 001F  
                                            __end_of_MPU6050_setSleepEnabled 3832  
                                                                 ??_CAN_Init 0002  
                                                __size_of_MPU6050_getMotion6 00F4  
                                                          __end_of_OpenUSART 3B12  
                                      __end_of_MPU6050_setFullScaleGyroRange 38E4  
                                     __size_of_MPU6050_setFullScaleGyroRange 001E  
                                              _MPU6050_setFullScaleGyroRange 38C6  
                                                                 __pbssBANK0 0060  
                                                   I2Cdev_writeBytes@devAddr 0008  
                                                     I2Cdev_readBytes@length 0008  
                                                   I2Cdev_writeBytes@regAddr 0004  
                                                                    ?___wmul 0001  
                                                  convertFrom16To8@arrayData 005E  
                                                                    _CANSTAT 000F6E  
                                                                  ?_WriteI2C 0001  
                                                                    _BRGCON1 000F70  
                                                                    _BRGCON2 000F71  
                                                                    _BRGCON3 000F72  
                                                                    _MPU6050 37B6  
                                                    ?_MPU6050_setClockSource 0001  
                                                                    _RXB0CON 000F60  
                                                                    _RXB1CON 000F50  
                                                __size_of_MPU6050_initialize 001E  
                                                                    _TXB0DLC 000F45  
                                                                    _TXB0CON 000F40  
                                                                  ?_flashLED 0001  
                                                  __size_of_convertFrom16To8 0020  
                                                                    _SSPCON1 000FC6  
                                                                    _SSPCON2 000FC5  
                                                                    _SSPSTAT 000FC7  
                                                                    _IdleI2C 37C2  
                                                                  _I2C_Bytes 005B  
                                                                    _MidByte 0047  
                                                                    _ReadI2C 39BA  
                                                                    _OpenI2C 3922  
                                                                    _LowByte 0046  
                                                                    __Hparam 0000  
                                                                    __Lparam 0000  
                                                            __size_of___wmul 002A  
                                                                    __pcinit 3944  
                                                                _Sensitivity 0078  
                                                                 ??_WriteI2C 0002  
                                                                    __ramtop 0600  
                                                                    _delayzz 3A12  
                                                                    __ptext0 3D64  
                                                                    __ptext1 37D6  
                                                                    __ptext2 3B7A  
                                                                    __ptext3 3800  
                                                                    __ptext4 37EA  
                                                                    __ptext5 38E4  
                                                                    __ptext6 3818  
                                                                    __ptext7 3C5C  
                                                                    __ptext8 38C6  
                                                                    __ptext9 38A8  
                                                                    _mbarInt 0080  
                                                                    _mpu6050 0048  
                                             __end_of_MPU6050_setClockSource 38A8  
                                                              ??_CAN_SetMode 0001  
                                                              ?_setupCANTxRx 0001  
                                     __end_of_MPU6050_setFullScaleAccelRange 38C6  
                                    __size_of_MPU6050_setFullScaleAccelRange 001E  
                                             _MPU6050_setFullScaleAccelRange 38A8  
                                                      I2Cdev_writeBit@bitNum 0018  
                                                                 ??_flashLED 0005  
                                        MPU6050_setFullScaleAccelRange@range 0021  
                                                       end_of_initialization 395C  
                                                              __Lmediumconst 0000  
                                             ?_MPU6050_setFullScaleGyroRange 0001  
                                                          I2Cdev_writeBits@b 0020  
                                                                  _RCSTAbits 000FAB  
                                                                    postdec2 000FDD  
                                                                    postinc0 000FEE  
                                                                    postinc2 000FDE  
                                                          ?_I2Cdev_readBytes 0007  
                                           __size_of_MPU6050_setSleepEnabled 001A  
                                                         ??_I2Cdev_readBytes 000B  
                                                            _I2Cdev_readByte 384E  
                                                             ??_setupCANTxRx 0003  
                                                                  _TRISBbits 000F93  
                                                                  _TRISCbits 000F94  
                                                        __end_of_CAN_SetMode 3818  
                                                          __size_of_CAN_Init 0068  
                                                            _I2Cdev_writeBit 3C5C  
                                                                  _TXSTAbits 000FAC  
                                                          ?_I2Cdev_writeBits 0017  
                                                      I2Cdev_writeBytes@data 0006  
                                                          ?_I2Cdev_writeByte 000A  
                                                             __end_of___wmul 3990  
                                                         ??_I2Cdev_writeBits 001B  
                                                         ??_I2Cdev_writeByte 000C  
                                                        start_initialization 3944  
                                                      __end_of_initI2C_USART 3A12  
                                                           _convertFrom16To8 3902  
                                                              ??_initMPU6050 0024  
                                                           WriteI2C@data_out 0003  
                                                       I2Cdev_readBytes@data 0009  
                                                                  _OpenUSART 3AB2  
                                                    __end_of_I2Cdev_readByte 386C  
                                                                   ??___wmul 0005  
                                                      main@ay_unsigned_array 002F  
                                                          __size_of_WriteI2C 0068  
                                                 __end_of_MPU6050_getMotion6 4000  
                                                                _CAN_SetMode 3800  
                                                                   ?_MPU6050 0001  
                                                                __pbssCOMRAM 0033  
                                                    __end_of_I2Cdev_writeBit 3CDA  
                                                    I2Cdev_readBytes@devAddr 0011  
                                                          __size_of_flashLED 002A  
                                                                   ?_IdleI2C 0001  
                                                                 ?_OpenUSART 0001  
                                                    I2Cdev_readBytes@regAddr 0007  
                                                                   ?_ReadI2C 0001  
                                                        __end_of_initMPU6050 3800  
                                                                   ?_OpenI2C 0001  
                                                       __end_of_setupCANTxRx 37EA  
                                                    _MPU6050_setSleepEnabled 3818  
                                                              ?_Delay10KTCYx 0001  
                                                          CAN_Transmit@canId 0004  
                                                    convertFrom16To8@dataAll 0001  
                                                                   ?_delayzz 0001  
                                                 __end_of_MPU6050_initialize 3902  
                                                                   _CAN_Init 3B7A  
                                                               _receivedData 0060  
                                                             ___wmul@product 0005  
                                                                   _LATBbits 000F8A  
                                                                   _PIE1bits 000F9D  
                                           ??_MPU6050_setFullScaleAccelRange 0021  
                                            ?_MPU6050_setFullScaleAccelRange 0001  
                                                                   _PIR1bits 000F9E  
                                                       I2Cdev_writeBits@data 001A  
                                                           ?_I2Cdev_readByte 0013  
                                                       I2Cdev_writeBits@mask 001F  
                                                                   _RXB0SIDH 000F61  
                                                                   _RXB0SIDL 000F62  
                                                             ??_Delay10KTCYx 0001  
                                                                   _RXF0SIDL 000F01  
                                                                   _RXF1SIDL 000F05  
                                                                   _RXF2SIDL 000F09  
                                                                   _RXF3SIDL 000F0D  
                                                                   _RXF4SIDL 000F11  
                                                                   _RXF5SIDL 000F15  
                                                                   _TXB0SIDH 000F41  
                                                                   _TXB0SIDL 000F42  
                                                                   _RXM0SIDH 000F18  
                                                                   _RXM0SIDL 000F19  
                                                                   _RXM1SIDH 000F1C  
                                                                   _RXM1SIDL 000F1D  
                                                          ___wmul@multiplier 0001  
                                                       I2Cdev_writeByte@data 000B  
                                                           Delay10KTCYx@unit 0002  
                                                           __size_of_MPU6050 000C  
                                                  __size_of_I2Cdev_readBytes 00EE  
                                                           ?_I2Cdev_writeBit 0017  
                                                   I2Cdev_writeBits@bitStart 0018  
                                                                   _HighByte 0045  
                                                                _initMPU6050 37EA  
                                                        I2Cdev_readByte@data 0014  
                                                           OpenI2C@sync_mode 0002  
                                                                ??_OpenUSART 0003  
                                                           __size_of_IdleI2C 0014  
                                                            OpenUSART@config 0003  
                                                  ??_MPU6050_setSleepEnabled 0023  
                                                           __size_of_ReadI2C 002C  
                                                                   __Hrparam 0000  
                                                           __size_of_OpenI2C 0022  
                                                                   __Lrparam 0000  
                                                              ?_CAN_Transmit 0001  
                                                   __end_of_convertFrom16To8 3922  
                                                                   _WriteI2C 3B12  
                                                           __size_of_delayzz 0042  
                                                                   __ptext10 388A  
                                                                   __ptext11 3CDA  
                                                                   __ptext20 3990  
                                                                   __ptext12 386C  
                                                                   __ptext21 3A12  
                                                                   __ptext13 3A54  
                                                                   __ptext22 3902  
                                                                   __ptext14 384E  
                                                                   __ptext23 3F0C  
                                                                   __ptext15 37B6  
                                                                   __ptext24 3E1E  
                                                                   __ptext16 39E6  
                                                                   __ptext25 3966  
                                                                   __ptext17 3AB2  
                                                                   __ptext26 3B12  
                                                                   __ptext18 3922  
                                                                   __ptext27 37C2  
                                                                   __ptext19 3832  
                                                                   __ptext28 39BA  
                                                                   __ptext29 3BE2  
                                                  __size_of_I2Cdev_writeBits 008A  
                                                                   _flashLED 3990  
                                                  __size_of_I2Cdev_writeByte 001E  
                                                      __size_of_setupCANTxRx 0014  
                                                              __size_of_main 00BA  
                                                        I2Cdev_writeBit@data 0019  
                                                                   _sendData 0033  
                                                                   delayzz@i 0001  
                                                                   delayzz@j 0003  
                                                              flashLED@count 0005  
                                                             ??_CAN_Transmit 0001  
                                                     I2Cdev_writeBit@devAddr 0021  
                                                   ??_MPU6050_setClockSource 0021  
                                                    I2Cdev_writeBits@devAddr 001E  
                                                     I2Cdev_writeBit@regAddr 0017  
                                                    I2Cdev_writeBits@regAddr 0017  
                                                               ?_CAN_SetMode 0001  
                                                             OpenUSART@spbrg 0001  
                                                               _sensorCoeffs 008A  
                                                               _setupCANTxRx 37D6  
                                                       __end_of_Delay10KTCYx 384E  
                                                         _MPU6050_getMotion6 3F0C  
                                                       MPU6050_getMotion6@ax 0013  
                                                       MPU6050_getMotion6@ay 0015  
                                                       MPU6050_getMotion6@az 0017  
                                                       MPU6050_getMotion6@gx 0019  
                                                       MPU6050_getMotion6@gy 001B  
                                                       MPU6050_getMotion6@gz 001D  
                                                        ?_MPU6050_getMotion6 0013  
                                                     __size_of_initI2C_USART 002C  
                                                         I2Cdev_writeBytes@i 0009  
                                                     I2Cdev_writeBits@length 0019  
                                                       ??_MPU6050_getMotion6 001F  
                                                                _SSPCON1bits 000FC6  
                                                           _I2Cdev_readBytes 3E1E  
                                                                _SSPCON2bits 000FC5  
                                                         _MPU6050_initialize 38E4  
                                                        ?_MPU6050_initialize 0001  
