

Microchip Technology PIC18 LITE Macro Assembler V1.32 build 58300 
                                                                                               Fri Oct 30 15:30:14 2015

Microchip Technology Omniscient Code Generator (Lite mode) build 58300
     1                           	processor	18F458
     2                           	fnconf	rparam,??,?,0
     3                           	opt	pw 120
     4                           	opt	lm
     5                           	psect	text0,global,reloc=2,class=CODE,delta=1
     6                           	psect	cinit,global,reloc=2,class=CODE,delta=1
     7                           	psect	bssCOMRAM,global,class=COMRAM,space=1,delta=1
     8                           	psect	cstackCOMRAM,global,class=COMRAM,space=1,delta=1
     9                           	psect	text1,global,reloc=2,class=CODE,delta=1
    10                           	psect	text2,global,reloc=2,class=CODE,delta=1
    11                           	psect	text3,global,reloc=2,class=CODE,delta=1
    12                           	psect	text4,global,reloc=2,class=CODE,delta=1
    13                           	psect	text5,global,reloc=2,class=CODE,delta=1
    14                           	psect	text6,global,reloc=2,class=CODE,delta=1
    15                           	psect	text7,global,reloc=2,class=CODE,delta=1
    16                           	psect	text8,global,reloc=2,class=CODE,delta=1
    17                           	psect	text9,global,reloc=2,class=CODE,delta=1
    18                           	psect	text10,global,reloc=2,class=CODE,delta=1
    19                           	psect	text11,global,reloc=2,class=CODE,delta=1
    20                           	psect	text12,global,reloc=2,class=CODE,delta=1
    21                           	psect	text13,global,reloc=2,class=CODE,delta=1
    22                           	psect	text14,global,reloc=2,class=CODE,delta=1
    23                           	psect	text15,global,reloc=2,class=CODE,delta=1
    24                           	psect	text16,global,reloc=2,class=CODE,delta=1
    25                           	psect	text17,global,reloc=2,class=CODE,delta=1
    26                           	psect	text18,global,reloc=2,class=CODE,delta=1
    27                           	psect	text19,global,reloc=2,class=CODE,delta=1
    28                           	psect	text20,global,reloc=2,class=CODE,delta=1
    29                           	psect	text21,global,reloc=2,class=CODE,delta=1
    30                           	psect	text22,global,reloc=2,class=CODE,delta=1
    31                           	psect	text23,global,reloc=2,class=CODE,delta=1
    32                           	psect	text24,global,reloc=2,class=CODE,delta=1
    33                           	psect	text25,global,reloc=2,class=CODE,delta=1
    34                           	psect	text26,global,reloc=2,class=CODE,delta=1
    35                           	psect	text27,global,reloc=2,class=CODE,delta=1
    36                           	psect	text28,global,reloc=2,class=CODE,delta=1
    37                           	psect	intsave_regs,global,class=BIGRAM,space=1,delta=1
    38                           	psect	rparam,global,class=COMRAM,space=1,delta=1
    39  0000                     _BRGCON1	set	3952
    40  0000                     _BRGCON2	set	3953
    41  0000                     _CANCON	set	3951
    42  0000                     _CANSTAT	set	3950
    43  0000                     _LATBbits	set	3978
    44  0000                     _PIE1bits	set	3997
    45  0000                     _PIR1bits	set	3998
    46  0000                     _RCSTA	set	4011
    47  0000                     _RCSTAbits	set	4011
    48  0000                     _RXB0CON	set	3936
    49  0000                     _RXB0D0	set	3942
    50  0000                     _RXB0D1	set	3943
    51  0000                     _RXB0D2	set	3944
    52  0000                     _RXB0D3	set	3945
    53  0000                     _RXB0D4	set	3946
    54  0000                     _RXB0D5	set	3947
    55  0000                     _RXB0D6	set	3948
    56  0000                     _RXB0D7	set	3949
    57  0000                     _RXB0SIDH	set	3937
    58  0000                     _RXB0SIDL	set	3938
    59  0000                     _RXB1CON	set	3920
    60  0000                     _RXF0SIDL	set	3841
    61  0000                     _RXF1SIDL	set	3845
    62  0000                     _RXF2SIDL	set	3849
    63  0000                     _RXF3SIDL	set	3853
    64  0000                     _RXF4SIDL	set	3857
    65  0000                     _RXF5SIDL	set	3861
    66  0000                     _RXM0SIDH	set	3864
    67  0000                     _RXM0SIDL	set	3865
    68  0000                     _RXM1SIDH	set	3868
    69  0000                     _RXM1SIDL	set	3869
    70  0000                     _SPBRG	set	4015
    71  0000                     _SSPADD	set	4040
    72  0000                     _SSPBUF	set	4041
    73  0000                     _SSPCON1	set	4038
    74  0000                     _SSPCON1bits	set	4038
    75  0000                     _SSPCON2	set	4037
    76  0000                     _SSPCON2bits	set	4037
    77  0000                     _SSPSTAT	set	4039
    78  0000                     _SSPSTATbits	set	4039
    79  0000                     _TRISB	set	3987
    80  0000                     _TRISBbits	set	3987
    81  0000                     _TRISCbits	set	3988
    82  0000                     _TXB0CON	set	3904
    83  0000                     _TXB0D0	set	3910
    84  0000                     _TXB0D1	set	3911
    85  0000                     _TXB0D2	set	3912
    86  0000                     _TXB0D3	set	3913
    87  0000                     _TXB0D4	set	3914
    88  0000                     _TXB0D5	set	3915
    89  0000                     _TXB0D6	set	3916
    90  0000                     _TXB0D7	set	3917
    91  0000                     _TXB0DLC	set	3909
    92  0000                     _TXB0SIDH	set	3905
    93  0000                     _TXB0SIDL	set	3906
    94  0000                     _TXSTA	set	4012
    95  0000                     _TXSTAbits	set	4012
    96                           
    97 ;;
    98 ;;Main: autosize = 0, tempsize = 0, incstack = 0, save=0
    99 ;;
   100 ;; *************** function _main *****************
   101 ;; Defined at:
   102 ;;		line 100 in file "main.c"
   103 ;; Parameters:    Size  Location     Type
   104 ;;		None
   105 ;; Auto vars:     Size  Location     Type
   106 ;;  ay              2   45[COMRAM] int 
   107 ;;  gz              2   43[COMRAM] int 
   108 ;;  gy              2   41[COMRAM] int 
   109 ;;  gx              2   39[COMRAM] int 
   110 ;;  az              2   37[COMRAM] int 
   111 ;;  ax              2   35[COMRAM] int 
   112 ;; Return value:  Size  Location     Type
   113 ;;		None               void
   114 ;; Registers used:
   115 ;;		wreg, fsr2l, fsr2h, status,2, status,0, prodl, prodh, cstack
   116 ;; Tracked objects:
   117 ;;		On entry : 0/0
   118 ;;		On exit  : 0/0
   119 ;;		Unchanged: 0/0
   120 ;; Data sizes:     COMRAM   BANK0   BANK1   BANK2   BANK3   BANK4   BANK5
   121 ;;      Params:         0       0       0       0       0       0       0
   122 ;;      Locals:        12       0       0       0       0       0       0
   123 ;;      Temps:          0       0       0       0       0       0       0
   124 ;;      Totals:        12       0       0       0       0       0       0
   125 ;;Total ram usage:       12 bytes
   126 ;; Hardware stack levels required when called:    8
   127 ;; This function calls:
   128 ;;		_CAN_Transmit
   129 ;;		_MPU6050_getMotion6
   130 ;;		_delayzz
   131 ;;		_flashLED
   132 ;;		_initI2C
   133 ;;		_initMPU6050
   134 ;;		_setupCANTxRx
   135 ;; This function is called by:
   136 ;;		Startup code after reset
   137 ;; This function uses a non-reentrant model
   138 ;;
   139                           
   140                           	psect	text0
   141  003C2C                     __ptext0:
   142                           	opt stack 0
   143  003C2C                     _main:
   144                           	opt stack 23
   145                           
   146                           ;incstack = 0
   147  003C2C  FFFF               	dw	65535
   148                           
   149                           ;main.c: 101: int16_t ax, ay, az, gx, gy, gz;
   150                           ;main.c: 102: initI2C();
   151  003C2E  ECDA  F01C         	call	_initI2C	;wreg free
   152                           
   153                           ;main.c: 103: initMPU6050();
   154  003C32  EC3D  F01C         	call	_initMPU6050	;wreg free
   155                           
   156                           ;main.c: 104: setupCANTxRx();
   157  003C36  EC33  F01C         	call	_setupCANTxRx	;wreg free
   158                           
   159                           ;main.c: 107: TRISBbits.TRISB0 = 0;
   160  003C3A  9093               	bcf	3987,0,c	;volatile
   161                           
   162                           ;main.c: 108: flashLED();
   163  003C3C  EC03  F01D         	call	_flashLED	;wreg free
   164  003C40                     l4385:
   165                           
   166                           ;main.c: 110: {
   167                           ;main.c: 112: MPU6050_getMotion6(&ax, &ay, &az, &gx, &gy, &gz);
   168  003C40  0E00               	movlw	high main@ax
   169  003C42  6E14               	movwf	MPU6050_getMotion6@ax+1,c
   170  003C44  0E24               	movlw	low main@ax
   171  003C46  6E13               	movwf	MPU6050_getMotion6@ax,c
   172  003C48  0E00               	movlw	high main@ay
   173  003C4A  6E16               	movwf	MPU6050_getMotion6@ay+1,c
   174  003C4C  0E2E               	movlw	low main@ay
   175  003C4E  6E15               	movwf	MPU6050_getMotion6@ay,c
   176  003C50  0E00               	movlw	high main@az
   177  003C52  6E18               	movwf	MPU6050_getMotion6@az+1,c
   178  003C54  0E26               	movlw	low main@az
   179  003C56  6E17               	movwf	MPU6050_getMotion6@az,c
   180  003C58  0E00               	movlw	high main@gx
   181  003C5A  6E1A               	movwf	MPU6050_getMotion6@gx+1,c
   182  003C5C  0E28               	movlw	low main@gx
   183  003C5E  6E19               	movwf	MPU6050_getMotion6@gx,c
   184  003C60  0E00               	movlw	high main@gy
   185  003C62  6E1C               	movwf	MPU6050_getMotion6@gy+1,c
   186  003C64  0E2A               	movlw	low main@gy
   187  003C66  6E1B               	movwf	MPU6050_getMotion6@gy,c
   188  003C68  0E00               	movlw	high main@gz
   189  003C6A  6E1E               	movwf	MPU6050_getMotion6@gz+1,c
   190  003C6C  0E2C               	movlw	low main@gz
   191  003C6E  6E1D               	movwf	MPU6050_getMotion6@gz,c
   192  003C70  EC86  F01F         	call	_MPU6050_getMotion6	;wreg free
   193                           
   194                           ;main.c: 121: sendData[0] = 1;
   195  003C74  0E01               	movlw	1
   196  003C76  6E38               	movwf	_sendData,c	;volatile
   197                           
   198                           ;main.c: 122: sendData[1] = 1;
   199  003C78  0E01               	movlw	1
   200  003C7A  6E39               	movwf	_sendData+1,c	;volatile
   201                           
   202                           ;main.c: 123: if (ay > 10)
   203  003C7C  502F               	movf	main@ay+1,w,c
   204  003C7E  0A80               	xorlw	128
   205  003C80  0F80               	addlw	-128
   206  003C82  0E0B               	movlw	11
   207  003C84  B4D8               	btfsc	status,2,c
   208  003C86  5C2E               	subwf	main@ay,w,c
   209  003C88  A0D8               	btfss	status,0,c
   210  003C8A  D003               	goto	l4397
   211                           
   212                           ;main.c: 124: {
   213                           ;main.c: 125: LATBbits.LATB0 ^= 1;
   214  003C8C  708A               	btg	3978,0,c	;volatile
   215                           
   216                           ;main.c: 126: sendData[1] = 2;
   217  003C8E  0E02               	movlw	2
   218  003C90  6E39               	movwf	_sendData+1,c	;volatile
   219  003C92                     l4397:
   220                           
   221                           ;main.c: 127: }
   222                           ;main.c: 128: CAN_Transmit();
   223  003C92  EC4E  F01E         	call	_CAN_Transmit	;wreg free
   224                           
   225                           ;main.c: 130: delayzz();
   226  003C96  EC2E  F01D         	call	_delayzz	;wreg free
   227  003C9A  D7D2               	goto	l4385
   228  003C9C                     __end_of_main:
   229                           	opt stack 0
   230                           status	equ	0xFD8
   231                           
   232                           	psect	cinit
   233  003840                     __pcinit:
   234                           	opt stack 0
   235  003840                     start_initialization:
   236                           	opt stack 0
   237  003840                     __initialization:
   238                           	opt stack 0
   239                           
   240                           ; Clear objects allocated to COMRAM (31 bytes)
   241  003840  EE00  F030         	lfsr	0,__pbssCOMRAM
   242  003844  0E1F               	movlw	31
   243  003846                     clear_0:
   244  003846  6AEE               	clrf	postinc0,c
   245  003848  06E8               	decf	wreg,f,c
   246  00384A  E1FD               	bnz	clear_0
   247  00384C                     end_of_initialization:
   248                           	opt stack 0
   249  00384C                     __end_of__initialization:
   250                           	opt stack 0
   251  00384C  0100               	movlb	0
   252  00384E  EF16  F01E         	goto	_main	;jump to C main() function
   253                           postinc0	equ	0xFEE
   254                           wreg	equ	0xFE8
   255                           status	equ	0xFD8
   256                           
   257                           	psect	bssCOMRAM
   258  000030                     __pbssCOMRAM:
   259                           	opt stack 0
   260  000030                     _receivedData:
   261                           	opt stack 0
   262  000030                     	ds	8
   263  000038                     _sendData:
   264                           	opt stack 0
   265  000038                     	ds	8
   266  000040                     _mpu6050:
   267                           	opt stack 0
   268  000040                     	ds	15
   269                           postinc0	equ	0xFEE
   270                           wreg	equ	0xFE8
   271                           status	equ	0xFD8
   272                           
   273                           	psect	cstackCOMRAM
   274  000001                     __pcstackCOMRAM:
   275                           	opt stack 0
   276  000001                     ??_IdleI2C:
   277  000001                     ??_ReadI2C:
   278  000001                     ??_Delay10KTCYx:
   279  000001                     ??_CAN_Transmit:
   280  000001                     ?___wmul:
   281                           	opt stack 0
   282  000001                     MPU6050@address:
   283                           	opt stack 0
   284  000001                     CAN_SetMode@canMode:
   285                           	opt stack 0
   286  000001                     OpenI2C@slew:
   287                           	opt stack 0
   288  000001                     delayzz@i:
   289                           	opt stack 0
   290  000001                     OpenUSART@spbrg:
   291                           	opt stack 0
   292  000001                     ___wmul@multiplier:
   293                           	opt stack 0
   294                           
   295                           ; 2 bytes @ 0x0
   296  000001                     	ds	1
   297  000002                     ??_WriteI2C:
   298  000002                     OpenI2C@sync_mode:
   299                           	opt stack 0
   300  000002                     Delay10KTCYx@unit:
   301                           	opt stack 0
   302                           
   303                           ; 1 bytes @ 0x1
   304  000002                     	ds	1
   305  000003                     OpenUSART@config:
   306                           	opt stack 0
   307  000003                     WriteI2C@data_out:
   308                           	opt stack 0
   309  000003                     delayzz@j:
   310                           	opt stack 0
   311  000003                     ___wmul@multiplicand:
   312                           	opt stack 0
   313                           
   314                           ; 2 bytes @ 0x2
   315  000003                     	ds	1
   316  000004                     I2Cdev_writeBytes@regAddr:
   317                           	opt stack 0
   318  000004                     CAN_Transmit@canId:
   319                           	opt stack 0
   320                           
   321                           ; 2 bytes @ 0x3
   322  000004                     	ds	1
   323  000005                     I2Cdev_writeBytes@length:
   324                           	opt stack 0
   325  000005                     flashLED@count:
   326                           	opt stack 0
   327  000005                     ___wmul@product:
   328                           	opt stack 0
   329                           
   330                           ; 2 bytes @ 0x4
   331  000005                     	ds	1
   332  000006                     I2Cdev_writeBytes@data:
   333                           	opt stack 0
   334                           
   335                           ; 2 bytes @ 0x5
   336  000006                     	ds	1
   337  000007                     I2Cdev_readBytes@regAddr:
   338                           	opt stack 0
   339                           
   340                           ; 1 bytes @ 0x6
   341  000007                     	ds	1
   342  000008                     I2Cdev_readBytes@length:
   343                           	opt stack 0
   344  000008                     I2Cdev_writeBytes@devAddr:
   345                           	opt stack 0
   346                           
   347                           ; 1 bytes @ 0x7
   348  000008                     	ds	1
   349  000009                     I2Cdev_writeBytes@i:
   350                           	opt stack 0
   351  000009                     I2Cdev_readBytes@data:
   352                           	opt stack 0
   353                           
   354                           ; 2 bytes @ 0x8
   355  000009                     	ds	1
   356  00000A                     I2Cdev_writeByte@regAddr:
   357                           	opt stack 0
   358                           
   359                           ; 1 bytes @ 0x9
   360  00000A                     	ds	1
   361  00000B                     ??_I2Cdev_readBytes:
   362  00000B                     I2Cdev_writeByte@data:
   363                           	opt stack 0
   364                           
   365                           ; 1 bytes @ 0xA
   366  00000B                     	ds	1
   367  00000C                     I2Cdev_writeByte@devAddr:
   368                           	opt stack 0
   369                           
   370                           ; 1 bytes @ 0xB
   371  00000C                     	ds	5
   372  000011                     I2Cdev_readBytes@devAddr:
   373                           	opt stack 0
   374                           
   375                           ; 1 bytes @ 0x10
   376  000011                     	ds	1
   377  000012                     I2Cdev_readBytes@count:
   378                           	opt stack 0
   379                           
   380                           ; 1 bytes @ 0x11
   381  000012                     	ds	1
   382  000013                     I2Cdev_readByte@regAddr:
   383                           	opt stack 0
   384  000013                     MPU6050_getMotion6@ax:
   385                           	opt stack 0
   386                           
   387                           ; 2 bytes @ 0x12
   388  000013                     	ds	1
   389  000014                     I2Cdev_readByte@data:
   390                           	opt stack 0
   391                           
   392                           ; 2 bytes @ 0x13
   393  000014                     	ds	1
   394  000015                     MPU6050_getMotion6@ay:
   395                           	opt stack 0
   396                           
   397                           ; 2 bytes @ 0x14
   398  000015                     	ds	1
   399  000016                     I2Cdev_readByte@devAddr:
   400                           	opt stack 0
   401                           
   402                           ; 1 bytes @ 0x15
   403  000016                     	ds	1
   404  000017                     I2Cdev_writeBit@regAddr:
   405                           	opt stack 0
   406  000017                     I2Cdev_writeBits@regAddr:
   407                           	opt stack 0
   408  000017                     MPU6050_getMotion6@az:
   409                           	opt stack 0
   410                           
   411                           ; 2 bytes @ 0x16
   412  000017                     	ds	1
   413  000018                     I2Cdev_writeBit@bitNum:
   414                           	opt stack 0
   415  000018                     I2Cdev_writeBits@bitStart:
   416                           	opt stack 0
   417                           
   418                           ; 1 bytes @ 0x17
   419  000018                     	ds	1
   420  000019                     I2Cdev_writeBit@data:
   421                           	opt stack 0
   422  000019                     I2Cdev_writeBits@length:
   423                           	opt stack 0
   424  000019                     MPU6050_getMotion6@gx:
   425                           	opt stack 0
   426                           
   427                           ; 2 bytes @ 0x18
   428  000019                     	ds	1
   429  00001A                     ??_I2Cdev_writeBit:
   430  00001A                     I2Cdev_writeBits@data:
   431                           	opt stack 0
   432                           
   433                           ; 1 bytes @ 0x19
   434  00001A                     	ds	1
   435  00001B                     ??_I2Cdev_writeBits:
   436  00001B                     MPU6050_getMotion6@gy:
   437                           	opt stack 0
   438                           
   439                           ; 2 bytes @ 0x1A
   440  00001B                     	ds	2
   441  00001D                     MPU6050_getMotion6@gz:
   442                           	opt stack 0
   443                           
   444                           ; 2 bytes @ 0x1C
   445  00001D                     	ds	1
   446  00001E                     I2Cdev_writeBits@devAddr:
   447                           	opt stack 0
   448                           
   449                           ; 1 bytes @ 0x1D
   450  00001E                     	ds	1
   451  00001F                     ??_MPU6050_getMotion6:
   452  00001F                     I2Cdev_writeBits@mask:
   453                           	opt stack 0
   454  00001F                     _I2Cdev_writeBit$356:
   455                           	opt stack 0
   456                           
   457                           ; 2 bytes @ 0x1E
   458  00001F                     	ds	1
   459  000020                     I2Cdev_writeBits@b:
   460                           	opt stack 0
   461                           
   462                           ; 1 bytes @ 0x1F
   463  000020                     	ds	1
   464  000021                     I2Cdev_writeBit@devAddr:
   465                           	opt stack 0
   466  000021                     MPU6050_setFullScaleGyroRange@range:
   467                           	opt stack 0
   468  000021                     MPU6050_setFullScaleAccelRange@range:
   469                           	opt stack 0
   470  000021                     MPU6050_setClockSource@source:
   471                           	opt stack 0
   472                           
   473                           ; 1 bytes @ 0x20
   474  000021                     	ds	1
   475  000022                     I2Cdev_writeBit@b:
   476                           	opt stack 0
   477                           
   478                           ; 1 bytes @ 0x21
   479  000022                     	ds	1
   480  000023                     MPU6050_setSleepEnabled@enabled:
   481                           	opt stack 0
   482                           
   483                           ; 1 bytes @ 0x22
   484  000023                     	ds	1
   485  000024                     main@ax:
   486                           	opt stack 0
   487                           
   488                           ; 2 bytes @ 0x23
   489  000024                     	ds	2
   490  000026                     main@az:
   491                           	opt stack 0
   492                           
   493                           ; 2 bytes @ 0x25
   494  000026                     	ds	2
   495  000028                     main@gx:
   496                           	opt stack 0
   497                           
   498                           ; 2 bytes @ 0x27
   499  000028                     	ds	2
   500  00002A                     main@gy:
   501                           	opt stack 0
   502                           
   503                           ; 2 bytes @ 0x29
   504  00002A                     	ds	2
   505  00002C                     main@gz:
   506                           	opt stack 0
   507                           
   508                           ; 2 bytes @ 0x2B
   509  00002C                     	ds	2
   510  00002E                     main@ay:
   511                           	opt stack 0
   512                           
   513                           ; 2 bytes @ 0x2D
   514  00002E                     	ds	2
   515                           postinc0	equ	0xFEE
   516                           wreg	equ	0xFE8
   517                           status	equ	0xFD8
   518                           
   519 ;; *************** function _setupCANTxRx *****************
   520 ;; Defined at:
   521 ;;		line 190 in file "../pic18f458_badgerloop.c"
   522 ;; Parameters:    Size  Location     Type
   523 ;;		None
   524 ;; Auto vars:     Size  Location     Type
   525 ;;		None
   526 ;; Return value:  Size  Location     Type
   527 ;;		None               void
   528 ;; Registers used:
   529 ;;		wreg, status,2, status,0, cstack
   530 ;; Tracked objects:
   531 ;;		On entry : 0/0
   532 ;;		On exit  : 0/0
   533 ;;		Unchanged: 0/0
   534 ;; Data sizes:     COMRAM   BANK0   BANK1   BANK2   BANK3   BANK4   BANK5
   535 ;;      Params:         0       0       0       0       0       0       0
   536 ;;      Locals:         0       0       0       0       0       0       0
   537 ;;      Temps:          0       0       0       0       0       0       0
   538 ;;      Totals:         0       0       0       0       0       0       0
   539 ;;Total ram usage:        0 bytes
   540 ;; Hardware stack levels used:    1
   541 ;; Hardware stack levels required when called:    2
   542 ;; This function calls:
   543 ;;		_CAN_Init
   544 ;;		_Delay10KTCYx
   545 ;; This function is called by:
   546 ;;		_main
   547 ;; This function uses a non-reentrant model
   548 ;;
   549                           
   550                           	psect	text1
   551  003866                     __ptext1:
   552                           	opt stack 0
   553  003866                     _setupCANTxRx:
   554                           	opt stack 28
   555                           
   556                           ;incstack = 0
   557  003866  FFFF               	dw	65535
   558                           
   559                           ;pic18f458_badgerloop.c: 193: TRISBbits.TRISB2 = 0;
   560  003868  9493               	bcf	3987,2,c	;volatile
   561                           
   562                           ;pic18f458_badgerloop.c: 195: TRISBbits.TRISB3 = 1;
   563  00386A  8693               	bsf	3987,3,c	;volatile
   564                           
   565                           ;pic18f458_badgerloop.c: 198: CAN_Init();
   566  00386C  ECE2  F01D         	call	_CAN_Init	;wreg free
   567                           
   568                           ;pic18f458_badgerloop.c: 201: Delay10KTCYx(50);
   569  003870  0E32               	movlw	50
   570  003872  EC61  F01C         	call	_Delay10KTCYx
   571  003876  0012               	return	
   572  003878  FFFF               	dw	65535	; errata NOP
   573  00387A                     __end_of_setupCANTxRx:
   574                           	opt stack 0
   575                           postinc0	equ	0xFEE
   576                           wreg	equ	0xFE8
   577                           status	equ	0xFD8
   578                           
   579 ;; *************** function _CAN_Init *****************
   580 ;; Defined at:
   581 ;;		line 144 in file "../pic18f458_badgerloop.c"
   582 ;; Parameters:    Size  Location     Type
   583 ;;		None
   584 ;; Auto vars:     Size  Location     Type
   585 ;;		None
   586 ;; Return value:  Size  Location     Type
   587 ;;		None               void
   588 ;; Registers used:
   589 ;;		wreg, status,2, status,0, cstack
   590 ;; Tracked objects:
   591 ;;		On entry : 0/0
   592 ;;		On exit  : 0/0
   593 ;;		Unchanged: 0/0
   594 ;; Data sizes:     COMRAM   BANK0   BANK1   BANK2   BANK3   BANK4   BANK5
   595 ;;      Params:         0       0       0       0       0       0       0
   596 ;;      Locals:         0       0       0       0       0       0       0
   597 ;;      Temps:          0       0       0       0       0       0       0
   598 ;;      Totals:         0       0       0       0       0       0       0
   599 ;;Total ram usage:        0 bytes
   600 ;; Hardware stack levels used:    1
   601 ;; Hardware stack levels required when called:    1
   602 ;; This function calls:
   603 ;;		_CAN_SetMode
   604 ;; This function is called by:
   605 ;;		_setupCANTxRx
   606 ;; This function uses a non-reentrant model
   607 ;;
   608                           
   609                           	psect	text2
   610  003BC4                     __ptext2:
   611                           	opt stack 0
   612  003BC4                     _CAN_Init:
   613                           	opt stack 28
   614                           
   615                           ;incstack = 0
   616  003BC4  FFFF               	dw	65535
   617                           
   618                           ;pic18f458_badgerloop.c: 146: TRISB = (1<<3);
   619  003BC6  0E08               	movlw	8
   620  003BC8  6E93               	movwf	3987,c	;volatile
   621                           
   622                           ;pic18f458_badgerloop.c: 149: CAN_SetMode((0x80));
   623  003BCA  0E80               	movlw	128
   624  003BCC  EC48  F01C         	call	_CAN_SetMode
   625                           
   626                           ;pic18f458_badgerloop.c: 160: BRGCON1 = 0x43;
   627  003BD0  0E43               	movlw	67
   628  003BD2  6E70               	movwf	3952,c	;volatile
   629                           
   630                           ;pic18f458_badgerloop.c: 162: BRGCON2 = 0xA1;
   631  003BD4  0EA1               	movlw	161
   632  003BD6  6E71               	movwf	3953,c	;volatile
   633                           
   634                           ;pic18f458_badgerloop.c: 166: BRGCON2 = 0x01;
   635  003BD8  0E01               	movlw	1
   636  003BDA  6E71               	movwf	3953,c	;volatile
   637                           
   638                           ;pic18f458_badgerloop.c: 169: RXM0SIDH = 0; RXM0SIDL = 0;
   639  003BDC  0E00               	movlw	0
   640  003BDE  CFE8 FF18          	movff	wreg,3864
   641  003BE2  0E00               	movlw	0
   642  003BE4  CFE8 FF19          	movff	wreg,3865
   643                           
   644                           ;pic18f458_badgerloop.c: 170: RXM1SIDH = 0; RXM1SIDL = 0;
   645  003BE8  0E00               	movlw	0
   646  003BEA  CFE8 FF1C          	movff	wreg,3868
   647  003BEE  0E00               	movlw	0
   648  003BF0  CFE8 FF1D          	movff	wreg,3869
   649                           
   650                           ;pic18f458_badgerloop.c: 171: RXF0SIDL = 0;
   651  003BF4  0E00               	movlw	0
   652  003BF6  CFE8 FF01          	movff	wreg,3841
   653                           
   654                           ;pic18f458_badgerloop.c: 172: RXF1SIDL = 0;
   655  003BFA  0E00               	movlw	0
   656  003BFC  CFE8 FF05          	movff	wreg,3845
   657                           
   658                           ;pic18f458_badgerloop.c: 173: RXF2SIDL = 0;
   659  003C00  0E00               	movlw	0
   660  003C02  CFE8 FF09          	movff	wreg,3849
   661                           
   662                           ;pic18f458_badgerloop.c: 174: RXF3SIDL = 0;
   663  003C06  0E00               	movlw	0
   664  003C08  CFE8 FF0D          	movff	wreg,3853
   665                           
   666                           ;pic18f458_badgerloop.c: 175: RXF4SIDL = 0;
   667  003C0C  0E00               	movlw	0
   668  003C0E  CFE8 FF11          	movff	wreg,3857
   669                           
   670                           ;pic18f458_badgerloop.c: 176: RXF5SIDL = 0;
   671  003C12  0E00               	movlw	0
   672  003C14  CFE8 FF15          	movff	wreg,3861
   673                           
   674                           ;pic18f458_badgerloop.c: 178: RXB0CON = 0;
   675  003C18  0E00               	movlw	0
   676  003C1A  6E60               	movwf	3936,c	;volatile
   677                           
   678                           ;pic18f458_badgerloop.c: 179: RXB1CON = 0;
   679  003C1C  0E00               	movlw	0
   680  003C1E  CFE8 FF50          	movff	wreg,3920
   681                           
   682                           ;pic18f458_badgerloop.c: 187: CAN_SetMode((0x00));
   683  003C22  0E00               	movlw	0
   684  003C24  EC48  F01C         	call	_CAN_SetMode
   685  003C28  0012               	return	
   686  003C2A  FFFF               	dw	65535	; errata NOP
   687  003C2C                     __end_of_CAN_Init:
   688                           	opt stack 0
   689                           postinc0	equ	0xFEE
   690                           wreg	equ	0xFE8
   691                           status	equ	0xFD8
   692                           
   693 ;; *************** function _CAN_SetMode *****************
   694 ;; Defined at:
   695 ;;		line 135 in file "../pic18f458_badgerloop.c"
   696 ;; Parameters:    Size  Location     Type
   697 ;;  canMode         1    wreg     unsigned char 
   698 ;; Auto vars:     Size  Location     Type
   699 ;;  canMode         1    0[COMRAM] unsigned char 
   700 ;; Return value:  Size  Location     Type
   701 ;;		None               void
   702 ;; Registers used:
   703 ;;		wreg, status,2, status,0
   704 ;; Tracked objects:
   705 ;;		On entry : 0/0
   706 ;;		On exit  : 0/0
   707 ;;		Unchanged: 0/0
   708 ;; Data sizes:     COMRAM   BANK0   BANK1   BANK2   BANK3   BANK4   BANK5
   709 ;;      Params:         0       0       0       0       0       0       0
   710 ;;      Locals:         1       0       0       0       0       0       0
   711 ;;      Temps:          0       0       0       0       0       0       0
   712 ;;      Totals:         1       0       0       0       0       0       0
   713 ;;Total ram usage:        1 bytes
   714 ;; Hardware stack levels used:    1
   715 ;; This function calls:
   716 ;;		Nothing
   717 ;; This function is called by:
   718 ;;		_CAN_Init
   719 ;; This function uses a non-reentrant model
   720 ;;
   721                           
   722                           	psect	text3
   723  003890                     __ptext3:
   724                           	opt stack 0
   725  003890                     _CAN_SetMode:
   726                           	opt stack 28
   727                           
   728                           ;incstack = 0
   729  003890  FFFF               	dw	65535
   730                           
   731                           ;CAN_SetMode@canMode stored from wreg
   732  003892  6E01               	movwf	CAN_SetMode@canMode,c
   733                           
   734                           ;pic18f458_badgerloop.c: 138: CANCON = canMode;
   735  003894  C001  FF6F         	movff	CAN_SetMode@canMode,3951	;volatile
   736  003898                     l1939:
   737  003898  506E               	movf	3950,w,c	;volatile
   738  00389A  0BE0               	andlw	224
   739  00389C  1801               	xorwf	CAN_SetMode@canMode,w,c
   740  00389E  B4D8               	btfsc	status,2,c
   741  0038A0  0012               	return	
   742  0038A2  FFFF               	dw	65535	; assembler added errata NOP
   743  0038A4  D7F9               	goto	l1939
   744  0038A6  FFFF               	dw	65535	; errata NOP
   745  0038A8                     __end_of_CAN_SetMode:
   746                           	opt stack 0
   747                           postinc0	equ	0xFEE
   748                           wreg	equ	0xFE8
   749                           status	equ	0xFD8
   750                           
   751 ;; *************** function _initMPU6050 *****************
   752 ;; Defined at:
   753 ;;		line 222 in file "../pic18f458_badgerloop.c"
   754 ;; Parameters:    Size  Location     Type
   755 ;;		None
   756 ;; Auto vars:     Size  Location     Type
   757 ;;		None
   758 ;; Return value:  Size  Location     Type
   759 ;;		None               void
   760 ;; Registers used:
   761 ;;		wreg, fsr2l, fsr2h, status,2, status,0, prodl, prodh, cstack
   762 ;; Tracked objects:
   763 ;;		On entry : 0/0
   764 ;;		On exit  : 0/0
   765 ;;		Unchanged: 0/0
   766 ;; Data sizes:     COMRAM   BANK0   BANK1   BANK2   BANK3   BANK4   BANK5
   767 ;;      Params:         0       0       0       0       0       0       0
   768 ;;      Locals:         0       0       0       0       0       0       0
   769 ;;      Temps:          0       0       0       0       0       0       0
   770 ;;      Totals:         0       0       0       0       0       0       0
   771 ;;Total ram usage:        0 bytes
   772 ;; Hardware stack levels used:    1
   773 ;; Hardware stack levels required when called:    7
   774 ;; This function calls:
   775 ;;		_Delay10KTCYx
   776 ;;		_MPU6050
   777 ;;		_MPU6050_initialize
   778 ;; This function is called by:
   779 ;;		_main
   780 ;; This function uses a non-reentrant model
   781 ;;
   782                           
   783                           	psect	text4
   784  00387A                     __ptext4:
   785                           	opt stack 0
   786  00387A                     _initMPU6050:
   787                           	opt stack 23
   788                           
   789                           ;incstack = 0
   790  00387A  FFFF               	dw	65535
   791                           
   792                           ;pic18f458_badgerloop.c: 224: MPU6050(0x68);
   793  00387C  0E68               	movlw	104
   794  00387E  EC1A  F01C         	call	_MPU6050
   795                           
   796                           ;pic18f458_badgerloop.c: 226: MPU6050_initialize();
   797  003882  ECBA  F01C         	call	_MPU6050_initialize	;wreg free
   798                           
   799                           ;pic18f458_badgerloop.c: 229: Delay10KTCYx(50);
   800  003886  0E32               	movlw	50
   801  003888  EC61  F01C         	call	_Delay10KTCYx
   802  00388C  0012               	return	
   803  00388E  FFFF               	dw	65535	; errata NOP
   804  003890                     __end_of_initMPU6050:
   805                           	opt stack 0
   806                           postinc0	equ	0xFEE
   807                           wreg	equ	0xFE8
   808                           status	equ	0xFD8
   809                           
   810 ;; *************** function _MPU6050_initialize *****************
   811 ;; Defined at:
   812 ;;		line 62 in file "../MPU6050.c"
   813 ;; Parameters:    Size  Location     Type
   814 ;;		None
   815 ;; Auto vars:     Size  Location     Type
   816 ;;		None
   817 ;; Return value:  Size  Location     Type
   818 ;;		None               void
   819 ;; Registers used:
   820 ;;		wreg, fsr2l, fsr2h, status,2, status,0, prodl, prodh, cstack
   821 ;; Tracked objects:
   822 ;;		On entry : 0/0
   823 ;;		On exit  : 0/0
   824 ;;		Unchanged: 0/0
   825 ;; Data sizes:     COMRAM   BANK0   BANK1   BANK2   BANK3   BANK4   BANK5
   826 ;;      Params:         0       0       0       0       0       0       0
   827 ;;      Locals:         0       0       0       0       0       0       0
   828 ;;      Temps:          0       0       0       0       0       0       0
   829 ;;      Totals:         0       0       0       0       0       0       0
   830 ;;Total ram usage:        0 bytes
   831 ;; Hardware stack levels used:    1
   832 ;; Hardware stack levels required when called:    6
   833 ;; This function calls:
   834 ;;		_MPU6050_setClockSource
   835 ;;		_MPU6050_setFullScaleAccelRange
   836 ;;		_MPU6050_setFullScaleGyroRange
   837 ;;		_MPU6050_setSleepEnabled
   838 ;; This function is called by:
   839 ;;		_initMPU6050
   840 ;; This function uses a non-reentrant model
   841 ;;
   842                           
   843                           	psect	text5
   844  003974                     __ptext5:
   845                           	opt stack 0
   846  003974                     _MPU6050_initialize:
   847                           	opt stack 23
   848                           
   849                           ;incstack = 0
   850  003974  FFFF               	dw	65535
   851                           
   852                           ;MPU6050.c: 63: MPU6050_setClockSource(0x01);
   853  003976  0E01               	movlw	1
   854  003978  EC8D  F01C         	call	_MPU6050_setClockSource
   855                           
   856                           ;MPU6050.c: 64: MPU6050_setFullScaleGyroRange(0x00);
   857  00397C  0E00               	movlw	0
   858  00397E  ECAB  F01C         	call	_MPU6050_setFullScaleGyroRange
   859                           
   860                           ;MPU6050.c: 65: MPU6050_setFullScaleAccelRange(0x00);
   861  003982  0E00               	movlw	0
   862  003984  EC9C  F01C         	call	_MPU6050_setFullScaleAccelRange
   863                           
   864                           ;MPU6050.c: 66: MPU6050_setSleepEnabled(0);
   865  003988  0E00               	movlw	0
   866  00398A  EC54  F01C         	call	_MPU6050_setSleepEnabled
   867  00398E  0012               	return	
   868  003990  FFFF               	dw	65535	; errata NOP
   869  003992                     __end_of_MPU6050_initialize:
   870                           	opt stack 0
   871                           postinc0	equ	0xFEE
   872                           wreg	equ	0xFE8
   873                           status	equ	0xFD8
   874                           
   875 ;; *************** function _MPU6050_setSleepEnabled *****************
   876 ;; Defined at:
   877 ;;		line 2382 in file "../MPU6050.c"
   878 ;; Parameters:    Size  Location     Type
   879 ;;  enabled         1    wreg     unsigned char 
   880 ;; Auto vars:     Size  Location     Type
   881 ;;  enabled         1   34[COMRAM] unsigned char 
   882 ;; Return value:  Size  Location     Type
   883 ;;		None               void
   884 ;; Registers used:
   885 ;;		wreg, fsr2l, fsr2h, status,2, status,0, prodl, prodh, cstack
   886 ;; Tracked objects:
   887 ;;		On entry : 0/0
   888 ;;		On exit  : 0/0
   889 ;;		Unchanged: 0/0
   890 ;; Data sizes:     COMRAM   BANK0   BANK1   BANK2   BANK3   BANK4   BANK5
   891 ;;      Params:         0       0       0       0       0       0       0
   892 ;;      Locals:         1       0       0       0       0       0       0
   893 ;;      Temps:          0       0       0       0       0       0       0
   894 ;;      Totals:         1       0       0       0       0       0       0
   895 ;;Total ram usage:        1 bytes
   896 ;; Hardware stack levels used:    1
   897 ;; Hardware stack levels required when called:    5
   898 ;; This function calls:
   899 ;;		_I2Cdev_writeBit
   900 ;; This function is called by:
   901 ;;		_MPU6050_initialize
   902 ;; This function uses a non-reentrant model
   903 ;;
   904                           
   905                           	psect	text6
   906  0038A8                     __ptext6:
   907                           	opt stack 0
   908  0038A8                     _MPU6050_setSleepEnabled:
   909                           	opt stack 23
   910                           
   911                           ;incstack = 0
   912  0038A8  FFFF               	dw	65535
   913                           
   914                           ;MPU6050_setSleepEnabled@enabled stored from wreg
   915  0038AA  6E23               	movwf	MPU6050_setSleepEnabled@enabled,c
   916                           
   917                           ;MPU6050.c: 2383: I2Cdev_writeBit(mpu6050.devAddr, 0x6B, 6, enabled);
   918  0038AC  0E6B               	movlw	107
   919  0038AE  6E17               	movwf	I2Cdev_writeBit@regAddr,c
   920  0038B0  0E06               	movlw	6
   921  0038B2  6E18               	movwf	I2Cdev_writeBit@bitNum,c
   922  0038B4  C023  F019         	movff	MPU6050_setSleepEnabled@enabled,I2Cdev_writeBit@data
   923  0038B8  5040               	movf	_mpu6050,w,c
   924  0038BA  EC8B  F01E         	call	_I2Cdev_writeBit
   925  0038BE  0012               	return	
   926  0038C0  FFFF               	dw	65535	; errata NOP
   927  0038C2                     __end_of_MPU6050_setSleepEnabled:
   928                           	opt stack 0
   929                           postinc0	equ	0xFEE
   930                           wreg	equ	0xFE8
   931                           status	equ	0xFD8
   932                           
   933 ;; *************** function _I2Cdev_writeBit *****************
   934 ;; Defined at:
   935 ;;		line 344 in file "../I2Cdev.c"
   936 ;; Parameters:    Size  Location     Type
   937 ;;  devAddr         1    wreg     unsigned char 
   938 ;;  regAddr         1   22[COMRAM] unsigned char 
   939 ;;  bitNum          1   23[COMRAM] unsigned char 
   940 ;;  data            1   24[COMRAM] unsigned char 
   941 ;; Auto vars:     Size  Location     Type
   942 ;;  devAddr         1   32[COMRAM] unsigned char 
   943 ;;  b               1   33[COMRAM] unsigned char 
   944 ;; Return value:  Size  Location     Type
   945 ;;                  1    wreg      unsigned char 
   946 ;; Registers used:
   947 ;;		wreg, fsr2l, fsr2h, status,2, status,0, prodl, prodh, cstack
   948 ;; Tracked objects:
   949 ;;		On entry : 0/0
   950 ;;		On exit  : 0/0
   951 ;;		Unchanged: 0/0
   952 ;; Data sizes:     COMRAM   BANK0   BANK1   BANK2   BANK3   BANK4   BANK5
   953 ;;      Params:         3       0       0       0       0       0       0
   954 ;;      Locals:         4       0       0       0       0       0       0
   955 ;;      Temps:          5       0       0       0       0       0       0
   956 ;;      Totals:        12       0       0       0       0       0       0
   957 ;;Total ram usage:       12 bytes
   958 ;; Hardware stack levels used:    1
   959 ;; Hardware stack levels required when called:    4
   960 ;; This function calls:
   961 ;;		_I2Cdev_readByte
   962 ;;		_I2Cdev_writeByte
   963 ;; This function is called by:
   964 ;;		_MPU6050_setSleepEnabled
   965 ;;		_MPU6050_setAuxVDDIOLevel
   966 ;;		_MPU6050_setAccelXSelfTest
   967 ;;		_MPU6050_setAccelYSelfTest
   968 ;;		_MPU6050_setAccelZSelfTest
   969 ;;		_MPU6050_setTempFIFOEnabled
   970 ;;		_MPU6050_setXGyroFIFOEnabled
   971 ;;		_MPU6050_setYGyroFIFOEnabled
   972 ;;		_MPU6050_setZGyroFIFOEnabled
   973 ;;		_MPU6050_setAccelFIFOEnabled
   974 ;;		_MPU6050_setSlave2FIFOEnabled
   975 ;;		_MPU6050_setSlave1FIFOEnabled
   976 ;;		_MPU6050_setSlave0FIFOEnabled
   977 ;;		_MPU6050_setMultiMasterEnabled
   978 ;;		_MPU6050_setWaitForExternalSensorEnabled
   979 ;;		_MPU6050_setSlave3FIFOEnabled
   980 ;;		_MPU6050_setSlaveReadWriteTransitionEnabled
   981 ;;		_MPU6050_setSlaveEnabled
   982 ;;		_MPU6050_setSlaveWordByteSwap
   983 ;;		_MPU6050_setSlaveWriteMode
   984 ;;		_MPU6050_setSlaveWordGroupOffset
   985 ;;		_MPU6050_setSlave4Enabled
   986 ;;		_MPU6050_setSlave4InterruptEnabled
   987 ;;		_MPU6050_setSlave4WriteMode
   988 ;;		_MPU6050_setInterruptMode
   989 ;;		_MPU6050_setInterruptDrive
   990 ;;		_MPU6050_setInterruptLatch
   991 ;;		_MPU6050_setInterruptLatchClear
   992 ;;		_MPU6050_setFSyncInterruptLevel
   993 ;;		_MPU6050_setFSyncInterruptEnabled
   994 ;;		_MPU6050_setI2CBypassEnabled
   995 ;;		_MPU6050_setClockOutputEnabled
   996 ;;		_MPU6050_setIntFreefallEnabled
   997 ;;		_MPU6050_setIntMotionEnabled
   998 ;;		_MPU6050_setIntZeroMotionEnabled
   999 ;;		_MPU6050_setIntFIFOBufferOverflowEnabled
  1000 ;;		_MPU6050_setIntI2CMasterEnabled
  1001 ;;		_MPU6050_setIntDataReadyEnabled
  1002 ;;		_MPU6050_setExternalShadowDelayEnabled
  1003 ;;		_MPU6050_setSlaveDelayEnabled
  1004 ;;		_MPU6050_resetGyroscopePath
  1005 ;;		_MPU6050_resetAccelerometerPath
  1006 ;;		_MPU6050_resetTemperaturePath
  1007 ;;		_MPU6050_setFIFOEnabled
  1008 ;;		_MPU6050_setI2CMasterModeEnabled
  1009 ;;		_MPU6050_switchSPIEnabled
  1010 ;;		_MPU6050_resetFIFO
  1011 ;;		_MPU6050_resetI2CMaster
  1012 ;;		_MPU6050_resetSensors
  1013 ;;		_MPU6050_reset
  1014 ;;		_MPU6050_setWakeCycleEnabled
  1015 ;;		_MPU6050_setTempSensorEnabled
  1016 ;;		_MPU6050_setStandbyXAccelEnabled
  1017 ;;		_MPU6050_setStandbyYAccelEnabled
  1018 ;;		_MPU6050_setStandbyZAccelEnabled
  1019 ;;		_MPU6050_setStandbyXGyroEnabled
  1020 ;;		_MPU6050_setStandbyYGyroEnabled
  1021 ;;		_MPU6050_setStandbyZGyroEnabled
  1022 ;;		_MPU6050_setOTPBankValid
  1023 ;;		_MPU6050_setIntPLLReadyEnabled
  1024 ;;		_MPU6050_setIntDMPEnabled
  1025 ;;		_MPU6050_setDMPEnabled
  1026 ;;		_MPU6050_resetDMP
  1027 ;; This function uses a non-reentrant model
  1028 ;;
  1029                           
  1030                           	psect	text7
  1031  003D16                     __ptext7:
  1032                           	opt stack 0
  1033  003D16                     _I2Cdev_writeBit:
  1034                           	opt stack 23
  1035                           
  1036                           ;incstack = 0
  1037  003D16  FFFF               	dw	65535
  1038                           
  1039                           ;I2Cdev_writeBit@devAddr stored from wreg
  1040  003D18  6E21               	movwf	I2Cdev_writeBit@devAddr,c
  1041                           
  1042                           ;I2Cdev.c: 345: uint8_t b;
  1043                           ;I2Cdev.c: 346: I2Cdev_readByte(devAddr, regAddr, &b);
  1044  003D1A  C017  F013         	movff	I2Cdev_writeBit@regAddr,I2Cdev_readByte@regAddr
  1045  003D1E  0E00               	movlw	high I2Cdev_writeBit@b
  1046  003D20  6E15               	movwf	I2Cdev_readByte@data+1,c
  1047  003D22  0E22               	movlw	low I2Cdev_writeBit@b
  1048  003D24  6E14               	movwf	I2Cdev_readByte@data,c
  1049  003D26  5021               	movf	I2Cdev_writeBit@devAddr,w,c
  1050  003D28  EC6F  F01C         	call	_I2Cdev_readByte
  1051                           
  1052                           ;I2Cdev.c: 347: b = (data != 0) ? (b | (1 << bitNum)) : (b & ~(1 << bitNum));
  1053  003D2C  6619               	tstfsz	I2Cdev_writeBit@data,c
  1054  003D2E  D012               	goto	l3313
  1055  003D30  C018  F01A         	movff	I2Cdev_writeBit@bitNum,??_I2Cdev_writeBit
  1056  003D34  0E01               	movlw	1
  1057  003D36  6E1B               	movwf	(??_I2Cdev_writeBit+1)& (0+255),c
  1058  003D38  2A1A               	incf	??_I2Cdev_writeBit,f,c
  1059  003D3A  D002               	goto	u1264
  1060  003D3C                     u1265:
  1061  003D3C  90D8               	bcf	status,0,c
  1062  003D3E  361B               	rlcf	??_I2Cdev_writeBit+1,f,c
  1063  003D40                     u1264:
  1064  003D40  2E1A               	decfsz	??_I2Cdev_writeBit,f,c
  1065  003D42  D7FC               	goto	u1265
  1066  003D44  501B               	movf	??_I2Cdev_writeBit+1,w,c
  1067  003D46  0AFF               	xorlw	255
  1068  003D48  1422               	andwf	I2Cdev_writeBit@b,w,c
  1069  003D4A  6E1C               	movwf	(??_I2Cdev_writeBit+2)& (0+255),c
  1070  003D4C  501C               	movf	??_I2Cdev_writeBit+2,w,c
  1071  003D4E  6E1F               	movwf	_I2Cdev_writeBit$356,c
  1072  003D50  6A20               	clrf	_I2Cdev_writeBit$356+1,c
  1073  003D52  D015               	goto	l3315
  1074  003D54                     l3313:
  1075  003D54  C018  F01A         	movff	I2Cdev_writeBit@bitNum,??_I2Cdev_writeBit
  1076  003D58  0E01               	movlw	1
  1077  003D5A  6E1B               	movwf	(??_I2Cdev_writeBit+1)& (0+255),c
  1078  003D5C  6A1C               	clrf	(??_I2Cdev_writeBit+2)& (0+255),c
  1079  003D5E  2A1A               	incf	??_I2Cdev_writeBit,f,c
  1080  003D60  D003               	goto	u1274
  1081  003D62                     u1275:
  1082  003D62  90D8               	bcf	status,0,c
  1083  003D64  361B               	rlcf	??_I2Cdev_writeBit+1,f,c
  1084  003D66  361C               	rlcf	??_I2Cdev_writeBit+2,f,c
  1085  003D68                     u1274:
  1086  003D68  2E1A               	decfsz	??_I2Cdev_writeBit,f,c
  1087  003D6A  D7FB               	goto	u1275
  1088  003D6C  5022               	movf	I2Cdev_writeBit@b,w,c
  1089  003D6E  6E1D               	movwf	(??_I2Cdev_writeBit+3)& (0+255),c
  1090  003D70  6A1E               	clrf	(??_I2Cdev_writeBit+4)& (0+255),c
  1091  003D72  501B               	movf	??_I2Cdev_writeBit+1,w,c
  1092  003D74  101D               	iorwf	??_I2Cdev_writeBit+3,w,c
  1093  003D76  6E1F               	movwf	_I2Cdev_writeBit$356,c
  1094  003D78  501C               	movf	??_I2Cdev_writeBit+2,w,c
  1095  003D7A  101E               	iorwf	??_I2Cdev_writeBit+4,w,c
  1096  003D7C  6E20               	movwf	_I2Cdev_writeBit$356+1,c
  1097  003D7E                     l3315:
  1098  003D7E  C01F  F022         	movff	_I2Cdev_writeBit$356,I2Cdev_writeBit@b
  1099                           
  1100                           ;I2Cdev.c: 348: return I2Cdev_writeByte(devAddr, regAddr, b);
  1101                           ;	Return value of _I2Cdev_writeBit is never used
  1102  003D82  C017  F00A         	movff	I2Cdev_writeBit@regAddr,I2Cdev_writeByte@regAddr
  1103  003D86  C022  F00B         	movff	I2Cdev_writeBit@b,I2Cdev_writeByte@data
  1104  003D8A  5021               	movf	I2Cdev_writeBit@devAddr,w,c
  1105  003D8C  EC7E  F01C         	call	_I2Cdev_writeByte
  1106  003D90  0012               	return	
  1107  003D92  FFFF               	dw	65535	; errata NOP
  1108  003D94                     __end_of_I2Cdev_writeBit:
  1109                           	opt stack 0
  1110                           postinc0	equ	0xFEE
  1111                           wreg	equ	0xFE8
  1112                           status	equ	0xFD8
  1113                           
  1114 ;; *************** function _MPU6050_setFullScaleGyroRange *****************
  1115 ;; Defined at:
  1116 ;;		line 251 in file "../MPU6050.c"
  1117 ;; Parameters:    Size  Location     Type
  1118 ;;  range           1    wreg     unsigned char 
  1119 ;; Auto vars:     Size  Location     Type
  1120 ;;  range           1   32[COMRAM] unsigned char 
  1121 ;; Return value:  Size  Location     Type
  1122 ;;		None               void
  1123 ;; Registers used:
  1124 ;;		wreg, fsr2l, fsr2h, status,2, status,0, prodl, prodh, cstack
  1125 ;; Tracked objects:
  1126 ;;		On entry : 0/0
  1127 ;;		On exit  : 0/0
  1128 ;;		Unchanged: 0/0
  1129 ;; Data sizes:     COMRAM   BANK0   BANK1   BANK2   BANK3   BANK4   BANK5
  1130 ;;      Params:         0       0       0       0       0       0       0
  1131 ;;      Locals:         1       0       0       0       0       0       0
  1132 ;;      Temps:          0       0       0       0       0       0       0
  1133 ;;      Totals:         1       0       0       0       0       0       0
  1134 ;;Total ram usage:        1 bytes
  1135 ;; Hardware stack levels used:    1
  1136 ;; Hardware stack levels required when called:    5
  1137 ;; This function calls:
  1138 ;;		_I2Cdev_writeBits
  1139 ;; This function is called by:
  1140 ;;		_MPU6050_initialize
  1141 ;; This function uses a non-reentrant model
  1142 ;;
  1143                           
  1144                           	psect	text8
  1145  003956                     __ptext8:
  1146                           	opt stack 0
  1147  003956                     _MPU6050_setFullScaleGyroRange:
  1148                           	opt stack 23
  1149                           
  1150                           ;incstack = 0
  1151  003956  FFFF               	dw	65535
  1152                           
  1153                           ;MPU6050_setFullScaleGyroRange@range stored from wreg
  1154  003958  6E21               	movwf	MPU6050_setFullScaleGyroRange@range,c
  1155                           
  1156                           ;MPU6050.c: 252: I2Cdev_writeBits(mpu6050.devAddr, 0x1B, 4, 2, range);
  1157  00395A  0E1B               	movlw	27
  1158  00395C  6E17               	movwf	I2Cdev_writeBits@regAddr,c
  1159  00395E  0E04               	movlw	4
  1160  003960  6E18               	movwf	I2Cdev_writeBits@bitStart,c
  1161  003962  0E02               	movlw	2
  1162  003964  6E19               	movwf	I2Cdev_writeBits@length,c
  1163  003966  C021  F01A         	movff	MPU6050_setFullScaleGyroRange@range,I2Cdev_writeBits@data
  1164  00396A  5040               	movf	_mpu6050,w,c
  1165  00396C  ECCA  F01E         	call	_I2Cdev_writeBits
  1166  003970  0012               	return	
  1167  003972  FFFF               	dw	65535	; errata NOP
  1168  003974                     __end_of_MPU6050_setFullScaleGyroRange:
  1169                           	opt stack 0
  1170                           postinc0	equ	0xFEE
  1171                           wreg	equ	0xFE8
  1172                           status	equ	0xFD8
  1173                           
  1174 ;; *************** function _MPU6050_setFullScaleAccelRange *****************
  1175 ;; Defined at:
  1176 ;;		line 327 in file "../MPU6050.c"
  1177 ;; Parameters:    Size  Location     Type
  1178 ;;  range           1    wreg     unsigned char 
  1179 ;; Auto vars:     Size  Location     Type
  1180 ;;  range           1   32[COMRAM] unsigned char 
  1181 ;; Return value:  Size  Location     Type
  1182 ;;		None               void
  1183 ;; Registers used:
  1184 ;;		wreg, fsr2l, fsr2h, status,2, status,0, prodl, prodh, cstack
  1185 ;; Tracked objects:
  1186 ;;		On entry : 0/0
  1187 ;;		On exit  : 0/0
  1188 ;;		Unchanged: 0/0
  1189 ;; Data sizes:     COMRAM   BANK0   BANK1   BANK2   BANK3   BANK4   BANK5
  1190 ;;      Params:         0       0       0       0       0       0       0
  1191 ;;      Locals:         1       0       0       0       0       0       0
  1192 ;;      Temps:          0       0       0       0       0       0       0
  1193 ;;      Totals:         1       0       0       0       0       0       0
  1194 ;;Total ram usage:        1 bytes
  1195 ;; Hardware stack levels used:    1
  1196 ;; Hardware stack levels required when called:    5
  1197 ;; This function calls:
  1198 ;;		_I2Cdev_writeBits
  1199 ;; This function is called by:
  1200 ;;		_MPU6050_initialize
  1201 ;; This function uses a non-reentrant model
  1202 ;;
  1203                           
  1204                           	psect	text9
  1205  003938                     __ptext9:
  1206                           	opt stack 0
  1207  003938                     _MPU6050_setFullScaleAccelRange:
  1208                           	opt stack 23
  1209                           
  1210                           ;incstack = 0
  1211  003938  FFFF               	dw	65535
  1212                           
  1213                           ;MPU6050_setFullScaleAccelRange@range stored from wreg
  1214  00393A  6E21               	movwf	MPU6050_setFullScaleAccelRange@range,c
  1215                           
  1216                           ;MPU6050.c: 328: I2Cdev_writeBits(mpu6050.devAddr, 0x1C, 4, 2, range);
  1217  00393C  0E1C               	movlw	28
  1218  00393E  6E17               	movwf	I2Cdev_writeBits@regAddr,c
  1219  003940  0E04               	movlw	4
  1220  003942  6E18               	movwf	I2Cdev_writeBits@bitStart,c
  1221  003944  0E02               	movlw	2
  1222  003946  6E19               	movwf	I2Cdev_writeBits@length,c
  1223  003948  C021  F01A         	movff	MPU6050_setFullScaleAccelRange@range,I2Cdev_writeBits@data
  1224  00394C  5040               	movf	_mpu6050,w,c
  1225  00394E  ECCA  F01E         	call	_I2Cdev_writeBits
  1226  003952  0012               	return	
  1227  003954  FFFF               	dw	65535	; errata NOP
  1228  003956                     __end_of_MPU6050_setFullScaleAccelRange:
  1229                           	opt stack 0
  1230                           postinc0	equ	0xFEE
  1231                           wreg	equ	0xFE8
  1232                           status	equ	0xFD8
  1233                           
  1234 ;; *************** function _MPU6050_setClockSource *****************
  1235 ;; Defined at:
  1236 ;;		line 2475 in file "../MPU6050.c"
  1237 ;; Parameters:    Size  Location     Type
  1238 ;;  source          1    wreg     unsigned char 
  1239 ;; Auto vars:     Size  Location     Type
  1240 ;;  source          1   32[COMRAM] unsigned char 
  1241 ;; Return value:  Size  Location     Type
  1242 ;;		None               void
  1243 ;; Registers used:
  1244 ;;		wreg, fsr2l, fsr2h, status,2, status,0, prodl, prodh, cstack
  1245 ;; Tracked objects:
  1246 ;;		On entry : 0/0
  1247 ;;		On exit  : 0/0
  1248 ;;		Unchanged: 0/0
  1249 ;; Data sizes:     COMRAM   BANK0   BANK1   BANK2   BANK3   BANK4   BANK5
  1250 ;;      Params:         0       0       0       0       0       0       0
  1251 ;;      Locals:         1       0       0       0       0       0       0
  1252 ;;      Temps:          0       0       0       0       0       0       0
  1253 ;;      Totals:         1       0       0       0       0       0       0
  1254 ;;Total ram usage:        1 bytes
  1255 ;; Hardware stack levels used:    1
  1256 ;; Hardware stack levels required when called:    5
  1257 ;; This function calls:
  1258 ;;		_I2Cdev_writeBits
  1259 ;; This function is called by:
  1260 ;;		_MPU6050_initialize
  1261 ;; This function uses a non-reentrant model
  1262 ;;
  1263                           
  1264                           	psect	text10
  1265  00391A                     __ptext10:
  1266                           	opt stack 0
  1267  00391A                     _MPU6050_setClockSource:
  1268                           	opt stack 23
  1269                           
  1270                           ;incstack = 0
  1271  00391A  FFFF               	dw	65535
  1272                           
  1273                           ;MPU6050_setClockSource@source stored from wreg
  1274  00391C  6E21               	movwf	MPU6050_setClockSource@source,c
  1275                           
  1276                           ;MPU6050.c: 2476: I2Cdev_writeBits(mpu6050.devAddr, 0x6B, 2, 3, source);
  1277  00391E  0E6B               	movlw	107
  1278  003920  6E17               	movwf	I2Cdev_writeBits@regAddr,c
  1279  003922  0E02               	movlw	2
  1280  003924  6E18               	movwf	I2Cdev_writeBits@bitStart,c
  1281  003926  0E03               	movlw	3
  1282  003928  6E19               	movwf	I2Cdev_writeBits@length,c
  1283  00392A  C021  F01A         	movff	MPU6050_setClockSource@source,I2Cdev_writeBits@data
  1284  00392E  5040               	movf	_mpu6050,w,c
  1285  003930  ECCA  F01E         	call	_I2Cdev_writeBits
  1286  003934  0012               	return	
  1287  003936  FFFF               	dw	65535	; errata NOP
  1288  003938                     __end_of_MPU6050_setClockSource:
  1289                           	opt stack 0
  1290                           postinc0	equ	0xFEE
  1291                           wreg	equ	0xFE8
  1292                           status	equ	0xFD8
  1293                           
  1294 ;; *************** function _I2Cdev_writeBits *****************
  1295 ;; Defined at:
  1296 ;;		line 373 in file "../I2Cdev.c"
  1297 ;; Parameters:    Size  Location     Type
  1298 ;;  devAddr         1    wreg     unsigned char 
  1299 ;;  regAddr         1   22[COMRAM] unsigned char 
  1300 ;;  bitStart        1   23[COMRAM] unsigned char 
  1301 ;;  length          1   24[COMRAM] unsigned char 
  1302 ;;  data            1   25[COMRAM] unsigned char 
  1303 ;; Auto vars:     Size  Location     Type
  1304 ;;  devAddr         1   29[COMRAM] unsigned char 
  1305 ;;  mask            1   30[COMRAM] unsigned char 
  1306 ;;  b               1   31[COMRAM] unsigned char 
  1307 ;; Return value:  Size  Location     Type
  1308 ;;                  1    wreg      unsigned char 
  1309 ;; Registers used:
  1310 ;;		wreg, fsr2l, fsr2h, status,2, status,0, prodl, prodh, cstack
  1311 ;; Tracked objects:
  1312 ;;		On entry : 0/0
  1313 ;;		On exit  : 0/0
  1314 ;;		Unchanged: 0/0
  1315 ;; Data sizes:     COMRAM   BANK0   BANK1   BANK2   BANK3   BANK4   BANK5
  1316 ;;      Params:         4       0       0       0       0       0       0
  1317 ;;      Locals:         3       0       0       0       0       0       0
  1318 ;;      Temps:          3       0       0       0       0       0       0
  1319 ;;      Totals:        10       0       0       0       0       0       0
  1320 ;;Total ram usage:       10 bytes
  1321 ;; Hardware stack levels used:    1
  1322 ;; Hardware stack levels required when called:    4
  1323 ;; This function calls:
  1324 ;;		_I2Cdev_readByte
  1325 ;;		_I2Cdev_writeByte
  1326 ;; This function is called by:
  1327 ;;		_MPU6050_setFullScaleGyroRange
  1328 ;;		_MPU6050_setFullScaleAccelRange
  1329 ;;		_MPU6050_setClockSource
  1330 ;;		_MPU6050_setExternalFrameSync
  1331 ;;		_MPU6050_setDLPFMode
  1332 ;;		_MPU6050_setDHPFMode
  1333 ;;		_MPU6050_setMasterClockSpeed
  1334 ;;		_MPU6050_setSlaveDataLength
  1335 ;;		_MPU6050_setSlave4MasterDelay
  1336 ;;		_MPU6050_setAccelerometerPowerOnDelay
  1337 ;;		_MPU6050_setFreefallDetectionCounterDecrement
  1338 ;;		_MPU6050_setMotionDetectionCounterDecrement
  1339 ;;		_MPU6050_setWakeFrequency
  1340 ;;		_MPU6050_setDeviceID
  1341 ;;		_MPU6050_setXGyroOffsetTC
  1342 ;;		_MPU6050_setYGyroOffsetTC
  1343 ;;		_MPU6050_setZGyroOffsetTC
  1344 ;; This function uses a non-reentrant model
  1345 ;;
  1346                           
  1347                           	psect	text11
  1348  003D94                     __ptext11:
  1349                           	opt stack 0
  1350  003D94                     _I2Cdev_writeBits:
  1351                           	opt stack 23
  1352                           
  1353                           ;incstack = 0
  1354  003D94  FFFF               	dw	65535
  1355                           
  1356                           ;I2Cdev_writeBits@devAddr stored from wreg
  1357  003D96  6E1E               	movwf	I2Cdev_writeBits@devAddr,c
  1358                           
  1359                           ;I2Cdev.c: 381: uint8_t b;
  1360                           ;I2Cdev.c: 382: if (I2Cdev_readByte(devAddr, regAddr, &b) != 0) {
  1361  003D98  C017  F013         	movff	I2Cdev_writeBits@regAddr,I2Cdev_readByte@regAddr
  1362  003D9C  0E00               	movlw	high I2Cdev_writeBits@b
  1363  003D9E  6E15               	movwf	I2Cdev_readByte@data+1,c
  1364  003DA0  0E20               	movlw	low I2Cdev_writeBits@b
  1365  003DA2  6E14               	movwf	I2Cdev_readByte@data,c
  1366  003DA4  501E               	movf	I2Cdev_writeBits@devAddr,w,c
  1367  003DA6  EC6F  F01C         	call	_I2Cdev_readByte
  1368  003DAA  0900               	iorlw	0
  1369  003DAC  B4D8               	btfsc	status,2,c
  1370  003DAE  D035               	goto	l227
  1371                           
  1372                           ;I2Cdev.c: 383: uint8_t mask = ((1 << length) - 1) << (bitStart - length + 1);
  1373  003DB0  5019               	movf	I2Cdev_writeBits@length,w,c
  1374  003DB2  0800               	sublw	0
  1375  003DB4  2418               	addwf	I2Cdev_writeBits@bitStart,w,c
  1376  003DB6  6E1B               	movwf	??_I2Cdev_writeBits& (0+255),c
  1377  003DB8  0E01               	movlw	1
  1378  003DBA  261B               	addwf	??_I2Cdev_writeBits,f,c
  1379  003DBC  C019  F01C         	movff	I2Cdev_writeBits@length,??_I2Cdev_writeBits+1
  1380  003DC0  0E01               	movlw	1
  1381  003DC2  6E1D               	movwf	(??_I2Cdev_writeBits+2)& (0+255),c
  1382  003DC4  2A1C               	incf	??_I2Cdev_writeBits+1,f,c
  1383  003DC6  D002               	goto	u1294
  1384  003DC8                     u1295:
  1385  003DC8  90D8               	bcf	status,0,c
  1386  003DCA  361D               	rlcf	??_I2Cdev_writeBits+2,f,c
  1387  003DCC                     u1294:
  1388  003DCC  2E1C               	decfsz	??_I2Cdev_writeBits+1,f,c
  1389  003DCE  D7FC               	goto	u1295
  1390  003DD0  0EFF               	movlw	255
  1391  003DD2  261D               	addwf	??_I2Cdev_writeBits+2,f,c
  1392  003DD4  2A1B               	incf	??_I2Cdev_writeBits,f,c
  1393  003DD6  D002               	goto	u1304
  1394  003DD8                     u1305:
  1395  003DD8  90D8               	bcf	status,0,c
  1396  003DDA  361D               	rlcf	??_I2Cdev_writeBits+2,f,c
  1397  003DDC                     u1304:
  1398  003DDC  2E1B               	decfsz	??_I2Cdev_writeBits,f,c
  1399  003DDE  D7FC               	goto	u1305
  1400  003DE0  501D               	movf	??_I2Cdev_writeBits+2,w,c
  1401  003DE2  6E1F               	movwf	I2Cdev_writeBits@mask,c
  1402                           
  1403                           ;I2Cdev.c: 384: data <<= (bitStart - length + 1);
  1404  003DE4  5019               	movf	I2Cdev_writeBits@length,w,c
  1405  003DE6  0800               	sublw	0
  1406  003DE8  2418               	addwf	I2Cdev_writeBits@bitStart,w,c
  1407  003DEA  6E1B               	movwf	??_I2Cdev_writeBits& (0+255),c
  1408  003DEC  0E01               	movlw	1
  1409  003DEE  261B               	addwf	??_I2Cdev_writeBits,f,c
  1410  003DF0  281B               	incf	??_I2Cdev_writeBits,w,c
  1411  003DF2  6E1C               	movwf	(??_I2Cdev_writeBits+1)& (0+255),c
  1412  003DF4  D002               	goto	u1310
  1413  003DF6                     u1315:
  1414  003DF6  90D8               	bcf	status,0,c
  1415  003DF8  361A               	rlcf	I2Cdev_writeBits@data,f,c
  1416  003DFA                     u1310:
  1417  003DFA  2E1C               	decfsz	(??_I2Cdev_writeBits+1)& (0+255),f,c
  1418  003DFC  D7FC               	goto	u1315
  1419                           
  1420                           ;I2Cdev.c: 385: data &= mask;
  1421  003DFE  501F               	movf	I2Cdev_writeBits@mask,w,c
  1422  003E00  161A               	andwf	I2Cdev_writeBits@data,f,c
  1423                           
  1424                           ;I2Cdev.c: 386: b &= ~(mask);
  1425  003E02  501F               	movf	I2Cdev_writeBits@mask,w,c
  1426  003E04  0AFF               	xorlw	255
  1427  003E06  1620               	andwf	I2Cdev_writeBits@b,f,c
  1428                           
  1429                           ;I2Cdev.c: 387: b |= data;
  1430  003E08  501A               	movf	I2Cdev_writeBits@data,w,c
  1431  003E0A  1220               	iorwf	I2Cdev_writeBits@b,f,c
  1432                           
  1433                           ;I2Cdev.c: 388: return I2Cdev_writeByte(devAddr, regAddr, b);
  1434                           ;	Return value of _I2Cdev_writeBits is never used
  1435  003E0C  C017  F00A         	movff	I2Cdev_writeBits@regAddr,I2Cdev_writeByte@regAddr
  1436  003E10  C020  F00B         	movff	I2Cdev_writeBits@b,I2Cdev_writeByte@data
  1437  003E14  501E               	movf	I2Cdev_writeBits@devAddr,w,c
  1438  003E16  EC7E  F01C         	call	_I2Cdev_writeByte
  1439  003E1A                     l227:
  1440  003E1A  0012               	return	
  1441  003E1C  FFFF               	dw	65535	; errata NOP
  1442  003E1E                     __end_of_I2Cdev_writeBits:
  1443                           	opt stack 0
  1444                           postinc0	equ	0xFEE
  1445                           wreg	equ	0xFE8
  1446                           status	equ	0xFD8
  1447                           
  1448 ;; *************** function _I2Cdev_writeByte *****************
  1449 ;; Defined at:
  1450 ;;		line 286 in file "../I2Cdev.c"
  1451 ;; Parameters:    Size  Location     Type
  1452 ;;  devAddr         1    wreg     unsigned char 
  1453 ;;  regAddr         1    9[COMRAM] unsigned char 
  1454 ;;  data            1   10[COMRAM] unsigned char 
  1455 ;; Auto vars:     Size  Location     Type
  1456 ;;  devAddr         1   11[COMRAM] unsigned char 
  1457 ;; Return value:  Size  Location     Type
  1458 ;;                  1    wreg      unsigned char 
  1459 ;; Registers used:
  1460 ;;		wreg, fsr2l, fsr2h, status,2, status,0, prodl, prodh, cstack
  1461 ;; Tracked objects:
  1462 ;;		On entry : 0/0
  1463 ;;		On exit  : 0/0
  1464 ;;		Unchanged: 0/0
  1465 ;; Data sizes:     COMRAM   BANK0   BANK1   BANK2   BANK3   BANK4   BANK5
  1466 ;;      Params:         2       0       0       0       0       0       0
  1467 ;;      Locals:         1       0       0       0       0       0       0
  1468 ;;      Temps:          0       0       0       0       0       0       0
  1469 ;;      Totals:         3       0       0       0       0       0       0
  1470 ;;Total ram usage:        3 bytes
  1471 ;; Hardware stack levels used:    1
  1472 ;; Hardware stack levels required when called:    3
  1473 ;; This function calls:
  1474 ;;		_I2Cdev_writeBytes
  1475 ;; This function is called by:
  1476 ;;		_I2Cdev_writeBit
  1477 ;;		_I2Cdev_writeBits
  1478 ;;		_MPU6050_setRate
  1479 ;;		_MPU6050_setFreefallDetectionThreshold
  1480 ;;		_MPU6050_setFreefallDetectionDuration
  1481 ;;		_MPU6050_setMotionDetectionThreshold
  1482 ;;		_MPU6050_setMotionDetectionDuration
  1483 ;;		_MPU6050_setZeroMotionDetectionThreshold
  1484 ;;		_MPU6050_setZeroMotionDetectionDuration
  1485 ;;		_MPU6050_setSlaveAddress
  1486 ;;		_MPU6050_setSlaveRegister
  1487 ;;		_MPU6050_setSlave4Address
  1488 ;;		_MPU6050_setSlave4Register
  1489 ;;		_MPU6050_setSlave4OutputByte
  1490 ;;		_MPU6050_setIntEnabled
  1491 ;;		_MPU6050_setSlaveOutputByte
  1492 ;;		_MPU6050_setFIFOByte
  1493 ;;		_MPU6050_setXFineGain
  1494 ;;		_MPU6050_setYFineGain
  1495 ;;		_MPU6050_setZFineGain
  1496 ;;		_MPU6050_setMemoryBank
  1497 ;;		_MPU6050_setMemoryStartAddress
  1498 ;;		_MPU6050_writeMemoryByte
  1499 ;;		_MPU6050_setDMPConfig1
  1500 ;;		_MPU6050_setDMPConfig2
  1501 ;; This function uses a non-reentrant model
  1502 ;;
  1503                           
  1504                           	psect	text12
  1505  0038FC                     __ptext12:
  1506                           	opt stack 0
  1507  0038FC                     _I2Cdev_writeByte:
  1508                           	opt stack 23
  1509                           
  1510                           ;incstack = 0
  1511  0038FC  FFFF               	dw	65535
  1512                           
  1513                           ;I2Cdev_writeByte@devAddr stored from wreg
  1514  0038FE  6E0C               	movwf	I2Cdev_writeByte@devAddr,c
  1515                           
  1516                           ;I2Cdev.c: 287: return I2Cdev_writeBytes(devAddr, regAddr, 1, &data);
  1517  003900  C00A  F004         	movff	I2Cdev_writeByte@regAddr,I2Cdev_writeBytes@regAddr
  1518  003904  0E01               	movlw	1
  1519  003906  6E05               	movwf	I2Cdev_writeBytes@length,c
  1520  003908  0E00               	movlw	high I2Cdev_writeByte@data
  1521  00390A  6E07               	movwf	I2Cdev_writeBytes@data+1,c
  1522  00390C  0E0B               	movlw	low I2Cdev_writeByte@data
  1523  00390E  6E06               	movwf	I2Cdev_writeBytes@data,c
  1524  003910  500C               	movf	I2Cdev_writeByte@devAddr,w,c
  1525  003912  EC4F  F01D         	call	_I2Cdev_writeBytes
  1526  003916  0012               	return	
  1527  003918  FFFF               	dw	65535	; errata NOP
  1528  00391A                     __end_of_I2Cdev_writeByte:
  1529                           	opt stack 0
  1530                           postinc0	equ	0xFEE
  1531                           wreg	equ	0xFE8
  1532                           status	equ	0xFD8
  1533                           
  1534 ;; *************** function _I2Cdev_writeBytes *****************
  1535 ;; Defined at:
  1536 ;;		line 254 in file "../I2Cdev.c"
  1537 ;; Parameters:    Size  Location     Type
  1538 ;;  devAddr         1    wreg     unsigned char 
  1539 ;;  regAddr         1    3[COMRAM] unsigned char 
  1540 ;;  length          1    4[COMRAM] unsigned char 
  1541 ;;  data            2    5[COMRAM] PTR unsigned char 
  1542 ;;		 -> I2Cdev_writeByte@data(1), 
  1543 ;; Auto vars:     Size  Location     Type
  1544 ;;  devAddr         1    7[COMRAM] unsigned char 
  1545 ;;  i               1    8[COMRAM] unsigned char 
  1546 ;; Return value:  Size  Location     Type
  1547 ;;                  1    wreg      unsigned char 
  1548 ;; Registers used:
  1549 ;;		wreg, fsr2l, fsr2h, status,2, status,0, prodl, prodh, cstack
  1550 ;; Tracked objects:
  1551 ;;		On entry : 0/0
  1552 ;;		On exit  : 0/0
  1553 ;;		Unchanged: 0/0
  1554 ;; Data sizes:     COMRAM   BANK0   BANK1   BANK2   BANK3   BANK4   BANK5
  1555 ;;      Params:         4       0       0       0       0       0       0
  1556 ;;      Locals:         2       0       0       0       0       0       0
  1557 ;;      Temps:          0       0       0       0       0       0       0
  1558 ;;      Totals:         6       0       0       0       0       0       0
  1559 ;;Total ram usage:        6 bytes
  1560 ;; Hardware stack levels used:    1
  1561 ;; Hardware stack levels required when called:    2
  1562 ;; This function calls:
  1563 ;;		_IdleI2C
  1564 ;;		_WriteI2C
  1565 ;; This function is called by:
  1566 ;;		_I2Cdev_writeByte
  1567 ;; This function uses a non-reentrant model
  1568 ;;
  1569                           
  1570                           	psect	text13
  1571  003A9E                     __ptext13:
  1572                           	opt stack 0
  1573  003A9E                     _I2Cdev_writeBytes:
  1574                           	opt stack 23
  1575                           
  1576                           ;incstack = 0
  1577  003A9E  FFFF               	dw	65535
  1578                           
  1579                           ;I2Cdev_writeBytes@devAddr stored from wreg
  1580  003AA0  6E08               	movwf	I2Cdev_writeBytes@devAddr,c
  1581                           
  1582                           ;I2Cdev.c: 256: IdleI2C();
  1583  003AA2  EC29  F01C         	call	_IdleI2C	;wreg free
  1584                           
  1585                           ;I2Cdev.c: 257: SSPCON2bits.SEN=1;while(SSPCON2bits.SEN);
  1586  003AA6  80C5               	bsf	4037,0,c	;volatile
  1587  003AA8                     l182:
  1588  003AA8  B0C5               	btfsc	4037,0,c	;volatile
  1589  003AAA  D7FE               	goto	l182
  1590                           
  1591                           ;I2Cdev.c: 260: IdleI2C();
  1592  003AAC  EC29  F01C         	call	_IdleI2C	;wreg free
  1593                           
  1594                           ;I2Cdev.c: 261: WriteI2C(devAddr << 1 | 0x00);
  1595  003AB0  5008               	movf	I2Cdev_writeBytes@devAddr,w,c
  1596  003AB2  2408               	addwf	I2Cdev_writeBytes@devAddr,w,c
  1597  003AB4  ECAE  F01D         	call	_WriteI2C
  1598                           
  1599                           ;I2Cdev.c: 264: IdleI2C();
  1600  003AB8  EC29  F01C         	call	_IdleI2C	;wreg free
  1601                           
  1602                           ;I2Cdev.c: 265: WriteI2C(regAddr);
  1603  003ABC  5004               	movf	I2Cdev_writeBytes@regAddr,w,c
  1604  003ABE  ECAE  F01D         	call	_WriteI2C
  1605                           
  1606                           ;I2Cdev.c: 267: for (uint8_t i = 0; i < length; i++) {
  1607  003AC2  0E00               	movlw	0
  1608  003AC4  6E09               	movwf	I2Cdev_writeBytes@i,c
  1609  003AC6  D00E               	goto	l3289
  1610  003AC8                     l3283:
  1611                           
  1612                           ;I2Cdev.c: 269: IdleI2C();
  1613  003AC8  EC29  F01C         	call	_IdleI2C	;wreg free
  1614                           
  1615                           ;I2Cdev.c: 270: WriteI2C(data[i]);
  1616  003ACC  5009               	movf	I2Cdev_writeBytes@i,w,c
  1617  003ACE  0D01               	mullw	1
  1618  003AD0  50F3               	movf	prodl,w,c
  1619  003AD2  2406               	addwf	I2Cdev_writeBytes@data,w,c
  1620  003AD4  6ED9               	movwf	fsr2l,c
  1621  003AD6  50F4               	movf	prodh,w,c
  1622  003AD8  2007               	addwfc	I2Cdev_writeBytes@data+1,w,c
  1623  003ADA  6EDA               	movwf	fsr2h,c
  1624  003ADC  50DF               	movf	indf2,w,c
  1625  003ADE  ECAE  F01D         	call	_WriteI2C
  1626  003AE2  2A09               	incf	I2Cdev_writeBytes@i,f,c
  1627  003AE4                     l3289:
  1628  003AE4  5005               	movf	I2Cdev_writeBytes@length,w,c
  1629  003AE6  5C09               	subwf	I2Cdev_writeBytes@i,w,c
  1630  003AE8  A0D8               	btfss	status,0,c
  1631  003AEA  D7EE               	goto	l3283
  1632                           
  1633                           ;I2Cdev.c: 271: }
  1634                           ;I2Cdev.c: 274: IdleI2C();
  1635  003AEC  EC29  F01C         	call	_IdleI2C	;wreg free
  1636                           
  1637                           ;I2Cdev.c: 275: SSPCON2bits.PEN=1;while(SSPCON2bits.PEN);
  1638  003AF0  84C5               	bsf	4037,2,c	;volatile
  1639  003AF2                     l188:
  1640  003AF2  B4C5               	btfsc	4037,2,c	;volatile
  1641  003AF4  D7FE               	goto	l188
  1642                           
  1643                           ;I2Cdev.c: 277: return 1;
  1644  003AF6  0E01               	movlw	1
  1645  003AF8  0012               	return	
  1646  003AFA  FFFF               	dw	65535	; errata NOP
  1647  003AFC                     __end_of_I2Cdev_writeBytes:
  1648                           	opt stack 0
  1649                           prodh	equ	0xFF4
  1650                           prodl	equ	0xFF3
  1651                           postinc0	equ	0xFEE
  1652                           wreg	equ	0xFE8
  1653                           indf2	equ	0xFDF
  1654                           fsr2h	equ	0xFDA
  1655                           fsr2l	equ	0xFD9
  1656                           status	equ	0xFD8
  1657                           
  1658 ;; *************** function _I2Cdev_readByte *****************
  1659 ;; Defined at:
  1660 ;;		line 95 in file "../I2Cdev.c"
  1661 ;; Parameters:    Size  Location     Type
  1662 ;;  devAddr         1    wreg     unsigned char 
  1663 ;;  regAddr         1   18[COMRAM] unsigned char 
  1664 ;;  data            2   19[COMRAM] PTR unsigned char 
  1665 ;;		 -> mpu6050(15), I2Cdev_writeBits@b(1), I2Cdev_writeBit@b(1), I2Cdev_readBits@b(1), 
  1666 ;;		 -> I2Cdev_readBit@b(1), 
  1667 ;; Auto vars:     Size  Location     Type
  1668 ;;  devAddr         1   21[COMRAM] unsigned char 
  1669 ;; Return value:  Size  Location     Type
  1670 ;;                  1    wreg      char 
  1671 ;; Registers used:
  1672 ;;		wreg, fsr2l, fsr2h, status,2, status,0, prodl, prodh, cstack
  1673 ;; Tracked objects:
  1674 ;;		On entry : 0/0
  1675 ;;		On exit  : 0/0
  1676 ;;		Unchanged: 0/0
  1677 ;; Data sizes:     COMRAM   BANK0   BANK1   BANK2   BANK3   BANK4   BANK5
  1678 ;;      Params:         3       0       0       0       0       0       0
  1679 ;;      Locals:         1       0       0       0       0       0       0
  1680 ;;      Temps:          0       0       0       0       0       0       0
  1681 ;;      Totals:         4       0       0       0       0       0       0
  1682 ;;Total ram usage:        4 bytes
  1683 ;; Hardware stack levels used:    1
  1684 ;; Hardware stack levels required when called:    3
  1685 ;; This function calls:
  1686 ;;		_I2Cdev_readBytes
  1687 ;; This function is called by:
  1688 ;;		_I2Cdev_writeBit
  1689 ;;		_I2Cdev_writeBits
  1690 ;;		_I2Cdev_readBit
  1691 ;;		_I2Cdev_readBits
  1692 ;;		_MPU6050_getRate
  1693 ;;		_MPU6050_getFreefallDetectionThreshold
  1694 ;;		_MPU6050_getFreefallDetectionDuration
  1695 ;;		_MPU6050_getMotionDetectionThreshold
  1696 ;;		_MPU6050_getMotionDetectionDuration
  1697 ;;		_MPU6050_getZeroMotionDetectionThreshold
  1698 ;;		_MPU6050_getZeroMotionDetectionDuration
  1699 ;;		_MPU6050_getSlaveAddress
  1700 ;;		_MPU6050_getSlaveRegister
  1701 ;;		_MPU6050_getSlave4Address
  1702 ;;		_MPU6050_getSlave4Register
  1703 ;;		_MPU6050_getSlate4InputByte
  1704 ;;		_MPU6050_getIntEnabled
  1705 ;;		_MPU6050_getIntStatus
  1706 ;;		_MPU6050_getExternalSensorByte
  1707 ;;		_MPU6050_getFIFOByte
  1708 ;;		_MPU6050_getXFineGain
  1709 ;;		_MPU6050_getYFineGain
  1710 ;;		_MPU6050_getZFineGain
  1711 ;;		_MPU6050_readMemoryByte
  1712 ;;		_MPU6050_getDMPConfig1
  1713 ;;		_MPU6050_getDMPConfig2
  1714 ;; This function uses a non-reentrant model
  1715 ;;
  1716                           
  1717                           	psect	text14
  1718  0038DE                     __ptext14:
  1719                           	opt stack 0
  1720  0038DE                     _I2Cdev_readByte:
  1721                           	opt stack 23
  1722                           
  1723                           ;incstack = 0
  1724  0038DE  FFFF               	dw	65535
  1725                           
  1726                           ;I2Cdev_readByte@devAddr stored from wreg
  1727  0038E0  6E16               	movwf	I2Cdev_readByte@devAddr,c
  1728                           
  1729                           ;I2Cdev.c: 96: return I2Cdev_readBytes(devAddr, regAddr, 1, data);
  1730  0038E2  C013  F007         	movff	I2Cdev_readByte@regAddr,I2Cdev_readBytes@regAddr
  1731  0038E6  0E01               	movlw	1
  1732  0038E8  6E08               	movwf	I2Cdev_readBytes@length,c
  1733  0038EA  C015  F00A         	movff	I2Cdev_readByte@data+1,I2Cdev_readBytes@data+1
  1734  0038EE  C014  F009         	movff	I2Cdev_readByte@data,I2Cdev_readBytes@data
  1735  0038F2  5016               	movf	I2Cdev_readByte@devAddr,w,c
  1736  0038F4  EC0F  F01F         	call	_I2Cdev_readBytes
  1737  0038F8  0012               	return	
  1738  0038FA  FFFF               	dw	65535	; errata NOP
  1739  0038FC                     __end_of_I2Cdev_readByte:
  1740                           	opt stack 0
  1741                           prodh	equ	0xFF4
  1742                           prodl	equ	0xFF3
  1743                           postinc0	equ	0xFEE
  1744                           wreg	equ	0xFE8
  1745                           indf2	equ	0xFDF
  1746                           fsr2h	equ	0xFDA
  1747                           fsr2l	equ	0xFD9
  1748                           status	equ	0xFD8
  1749                           
  1750 ;; *************** function _MPU6050 *****************
  1751 ;; Defined at:
  1752 ;;		line 51 in file "../MPU6050.c"
  1753 ;; Parameters:    Size  Location     Type
  1754 ;;  address         1    wreg     unsigned char 
  1755 ;; Auto vars:     Size  Location     Type
  1756 ;;  address         1    0[COMRAM] unsigned char 
  1757 ;; Return value:  Size  Location     Type
  1758 ;;		None               void
  1759 ;; Registers used:
  1760 ;;		wreg
  1761 ;; Tracked objects:
  1762 ;;		On entry : 0/0
  1763 ;;		On exit  : 0/0
  1764 ;;		Unchanged: 0/0
  1765 ;; Data sizes:     COMRAM   BANK0   BANK1   BANK2   BANK3   BANK4   BANK5
  1766 ;;      Params:         0       0       0       0       0       0       0
  1767 ;;      Locals:         1       0       0       0       0       0       0
  1768 ;;      Temps:          0       0       0       0       0       0       0
  1769 ;;      Totals:         1       0       0       0       0       0       0
  1770 ;;Total ram usage:        1 bytes
  1771 ;; Hardware stack levels used:    1
  1772 ;; This function calls:
  1773 ;;		Nothing
  1774 ;; This function is called by:
  1775 ;;		_initMPU6050
  1776 ;; This function uses a non-reentrant model
  1777 ;;
  1778                           
  1779                           	psect	text15
  1780  003834                     __ptext15:
  1781                           	opt stack 0
  1782  003834                     _MPU6050:
  1783                           	opt stack 29
  1784                           
  1785                           ;incstack = 0
  1786  003834  FFFF               	dw	65535
  1787                           
  1788                           ;MPU6050@address stored from wreg
  1789  003836  6E01               	movwf	MPU6050@address,c
  1790                           
  1791                           ;MPU6050.c: 52: mpu6050.devAddr = address;
  1792  003838  C001  F040         	movff	MPU6050@address,_mpu6050
  1793  00383C  0012               	return	
  1794  00383E  FFFF               	dw	65535	; errata NOP
  1795  003840                     __end_of_MPU6050:
  1796                           	opt stack 0
  1797                           prodh	equ	0xFF4
  1798                           prodl	equ	0xFF3
  1799                           postinc0	equ	0xFEE
  1800                           wreg	equ	0xFE8
  1801                           indf2	equ	0xFDF
  1802                           fsr2h	equ	0xFDA
  1803                           fsr2l	equ	0xFD9
  1804                           status	equ	0xFD8
  1805                           
  1806 ;; *************** function _initI2C *****************
  1807 ;; Defined at:
  1808 ;;		line 208 in file "../pic18f458_badgerloop.c"
  1809 ;; Parameters:    Size  Location     Type
  1810 ;;		None
  1811 ;; Auto vars:     Size  Location     Type
  1812 ;;		None
  1813 ;; Return value:  Size  Location     Type
  1814 ;;		None               void
  1815 ;; Registers used:
  1816 ;;		wreg, status,2, status,0, cstack
  1817 ;; Tracked objects:
  1818 ;;		On entry : 0/0
  1819 ;;		On exit  : 0/0
  1820 ;;		Unchanged: 0/0
  1821 ;; Data sizes:     COMRAM   BANK0   BANK1   BANK2   BANK3   BANK4   BANK5
  1822 ;;      Params:         0       0       0       0       0       0       0
  1823 ;;      Locals:         0       0       0       0       0       0       0
  1824 ;;      Temps:          0       0       0       0       0       0       0
  1825 ;;      Totals:         0       0       0       0       0       0       0
  1826 ;;Total ram usage:        0 bytes
  1827 ;; Hardware stack levels used:    1
  1828 ;; Hardware stack levels required when called:    1
  1829 ;; This function calls:
  1830 ;;		_Delay10KTCYx
  1831 ;;		_OpenI2C
  1832 ;;		_OpenUSART
  1833 ;; This function is called by:
  1834 ;;		_main
  1835 ;; This function uses a non-reentrant model
  1836 ;;
  1837                           
  1838                           	psect	text16
  1839  0039B4                     __ptext16:
  1840                           	opt stack 0
  1841  0039B4                     _initI2C:
  1842                           	opt stack 29
  1843                           
  1844                           ;incstack = 0
  1845  0039B4  FFFF               	dw	65535
  1846                           
  1847                           ;pic18f458_badgerloop.c: 211: OpenUSART(0b01111111 | 0b10111111 | 0b11111110 |
  1848                           ;pic18f458_badgerloop.c: 212: 0b11111101 | 0b11111111 | 0b11111111, 12);
  1849  0039B6  0E00               	movlw	0
  1850  0039B8  6E02               	movwf	OpenUSART@spbrg+1,c
  1851  0039BA  0E0C               	movlw	12
  1852  0039BC  6E01               	movwf	OpenUSART@spbrg,c
  1853  0039BE  0EFF               	movlw	255
  1854  0039C0  EC7E  F01D         	call	_OpenUSART
  1855                           
  1856                           ;pic18f458_badgerloop.c: 215: OpenI2C(0b00001000, 0b10000000);
  1857  0039C4  0E80               	movlw	128
  1858  0039C6  6E01               	movwf	OpenI2C@slew,c
  1859  0039C8  0E08               	movlw	8
  1860  0039CA  ECC9  F01C         	call	_OpenI2C
  1861                           
  1862                           ;pic18f458_badgerloop.c: 216: SSPADD = ( ( 80000000 / ( 4 * 400000 ) ) - 1 );
  1863  0039CE  0E31               	movlw	49
  1864  0039D0  6EC8               	movwf	4040,c	;volatile
  1865                           
  1866                           ;pic18f458_badgerloop.c: 219: Delay10KTCYx(50);
  1867  0039D2  0E32               	movlw	50
  1868  0039D4  EC61  F01C         	call	_Delay10KTCYx
  1869  0039D8  0012               	return	
  1870  0039DA  FFFF               	dw	65535	; errata NOP
  1871  0039DC                     __end_of_initI2C:
  1872                           	opt stack 0
  1873                           prodh	equ	0xFF4
  1874                           prodl	equ	0xFF3
  1875                           postinc0	equ	0xFEE
  1876                           wreg	equ	0xFE8
  1877                           indf2	equ	0xFDF
  1878                           fsr2h	equ	0xFDA
  1879                           fsr2l	equ	0xFD9
  1880                           status	equ	0xFD8
  1881                           
  1882 ;; *************** function _OpenUSART *****************
  1883 ;; Defined at:
  1884 ;;		line 21 in file "/Applications/microchip/xc8/v1.32/sources/pic18/plib/USART/uopen.c"
  1885 ;; Parameters:    Size  Location     Type
  1886 ;;  config          1    wreg     unsigned char 
  1887 ;;  spbrg           2    0[COMRAM] unsigned int 
  1888 ;; Auto vars:     Size  Location     Type
  1889 ;;  config          1    2[COMRAM] unsigned char 
  1890 ;; Return value:  Size  Location     Type
  1891 ;;		None               void
  1892 ;; Registers used:
  1893 ;;		wreg, status,2
  1894 ;; Tracked objects:
  1895 ;;		On entry : 0/0
  1896 ;;		On exit  : 0/0
  1897 ;;		Unchanged: 0/0
  1898 ;; Data sizes:     COMRAM   BANK0   BANK1   BANK2   BANK3   BANK4   BANK5
  1899 ;;      Params:         2       0       0       0       0       0       0
  1900 ;;      Locals:         1       0       0       0       0       0       0
  1901 ;;      Temps:          0       0       0       0       0       0       0
  1902 ;;      Totals:         3       0       0       0       0       0       0
  1903 ;;Total ram usage:        3 bytes
  1904 ;; Hardware stack levels used:    1
  1905 ;; This function calls:
  1906 ;;		Nothing
  1907 ;; This function is called by:
  1908 ;;		_initI2C
  1909 ;; This function uses a non-reentrant model
  1910 ;;
  1911                           
  1912                           	psect	text17
  1913  003AFC                     __ptext17:
  1914                           	opt stack 0
  1915  003AFC                     _OpenUSART:
  1916                           	opt stack 29
  1917                           
  1918                           ;incstack = 0
  1919  003AFC  FFFF               	dw	65535
  1920                           
  1921                           ;OpenUSART@config stored from wreg
  1922  003AFE  6E03               	movwf	OpenUSART@config,c
  1923  003B00  0E00               	movlw	0
  1924  003B02  6EAC               	movwf	4012,c	;volatile
  1925  003B04  0E00               	movlw	0
  1926  003B06  6EAB               	movwf	4011,c	;volatile
  1927  003B08  B003               	btfsc	OpenUSART@config,0,c
  1928  003B0A  88AC               	bsf	4012,4,c	;volatile
  1929  003B0C  A203               	btfss	OpenUSART@config,1,c
  1930  003B0E  D002               	goto	l2095
  1931  003B10  8CAC               	bsf	4012,6,c	;volatile
  1932  003B12  8CAB               	bsf	4011,6,c	;volatile
  1933  003B14                     l2095:
  1934  003B14  B403               	btfsc	OpenUSART@config,2,c
  1935  003B16  8EAC               	bsf	4012,7,c	;volatile
  1936  003B18  A603               	btfss	OpenUSART@config,3,c
  1937  003B1A  D002               	goto	l1105
  1938  003B1C  88AB               	bsf	4011,4,c	;volatile
  1939  003B1E  D001               	goto	l2103
  1940  003B20                     l1105:
  1941  003B20  8AAB               	bsf	4011,5,c	;volatile
  1942  003B22                     l2103:
  1943  003B22  A803               	btfss	OpenUSART@config,4,c
  1944  003B24  D002               	goto	l1107
  1945  003B26  84AC               	bsf	4012,2,c	;volatile
  1946  003B28  D001               	goto	l1108
  1947  003B2A                     l1107:
  1948  003B2A  94AC               	bcf	4012,2,c	;volatile
  1949  003B2C                     l1108:
  1950  003B2C  989E               	bcf	3998,4,c	;volatile
  1951  003B2E  AC03               	btfss	OpenUSART@config,6,c
  1952  003B30  D002               	goto	l1109
  1953  003B32  8A9D               	bsf	3997,5,c	;volatile
  1954  003B34  D001               	goto	l1110
  1955  003B36                     l1109:
  1956  003B36  9A9D               	bcf	3997,5,c	;volatile
  1957  003B38                     l1110:
  1958  003B38  9A9E               	bcf	3998,5,c	;volatile
  1959  003B3A  AE03               	btfss	OpenUSART@config,7,c
  1960  003B3C  D002               	goto	l1111
  1961  003B3E  889D               	bsf	3997,4,c	;volatile
  1962  003B40  D001               	goto	l1112
  1963  003B42                     l1111:
  1964  003B42  989D               	bcf	3997,4,c	;volatile
  1965  003B44                     l1112:
  1966  003B44  C001  FFAF         	movff	OpenUSART@spbrg,4015	;volatile
  1967  003B48  8AAC               	bsf	4012,5,c	;volatile
  1968  003B4A  8EAB               	bsf	4011,7,c	;volatile
  1969  003B4C  9C94               	bcf	3988,6,c	;volatile
  1970  003B4E  8E94               	bsf	3988,7,c	;volatile
  1971  003B50  B8AC               	btfsc	4012,4,c	;volatile
  1972  003B52  BEAC               	btfsc	4012,7,c	;volatile
  1973  003B54  D001               	goto	l1114
  1974  003B56  8C94               	bsf	3988,6,c	;volatile
  1975  003B58                     l1114:
  1976  003B58  0012               	return	
  1977  003B5A  FFFF               	dw	65535	; errata NOP
  1978  003B5C                     __end_of_OpenUSART:
  1979                           	opt stack 0
  1980                           prodh	equ	0xFF4
  1981                           prodl	equ	0xFF3
  1982                           postinc0	equ	0xFEE
  1983                           wreg	equ	0xFE8
  1984                           indf2	equ	0xFDF
  1985                           fsr2h	equ	0xFDA
  1986                           fsr2l	equ	0xFD9
  1987                           status	equ	0xFD8
  1988                           
  1989 ;; *************** function _OpenI2C *****************
  1990 ;; Defined at:
  1991 ;;		line 14 in file "/Applications/microchip/xc8/v1.32/sources/pic18/plib/i2c/i2c_open.c"
  1992 ;; Parameters:    Size  Location     Type
  1993 ;;  sync_mode       1    wreg     unsigned char 
  1994 ;;  slew            1    0[COMRAM] unsigned char 
  1995 ;; Auto vars:     Size  Location     Type
  1996 ;;  sync_mode       1    1[COMRAM] unsigned char 
  1997 ;; Return value:  Size  Location     Type
  1998 ;;		None               void
  1999 ;; Registers used:
  2000 ;;		wreg, status,2, status,0
  2001 ;; Tracked objects:
  2002 ;;		On entry : 0/0
  2003 ;;		On exit  : 0/0
  2004 ;;		Unchanged: 0/0
  2005 ;; Data sizes:     COMRAM   BANK0   BANK1   BANK2   BANK3   BANK4   BANK5
  2006 ;;      Params:         1       0       0       0       0       0       0
  2007 ;;      Locals:         1       0       0       0       0       0       0
  2008 ;;      Temps:          0       0       0       0       0       0       0
  2009 ;;      Totals:         2       0       0       0       0       0       0
  2010 ;;Total ram usage:        2 bytes
  2011 ;; Hardware stack levels used:    1
  2012 ;; This function calls:
  2013 ;;		Nothing
  2014 ;; This function is called by:
  2015 ;;		_initI2C
  2016 ;; This function uses a non-reentrant model
  2017 ;;
  2018                           
  2019                           	psect	text18
  2020  003992                     __ptext18:
  2021                           	opt stack 0
  2022  003992                     _OpenI2C:
  2023                           	opt stack 29
  2024                           
  2025                           ;incstack = 0
  2026  003992  FFFF               	dw	65535
  2027                           
  2028                           ;OpenI2C@sync_mode stored from wreg
  2029  003994  6E02               	movwf	OpenI2C@sync_mode,c
  2030  003996  0E3F               	movlw	63
  2031  003998  16C7               	andwf	4039,f,c	;volatile
  2032  00399A  0E00               	movlw	0
  2033  00399C  6EC6               	movwf	4038,c	;volatile
  2034  00399E  0E00               	movlw	0
  2035  0039A0  6EC5               	movwf	4037,c	;volatile
  2036  0039A2  5002               	movf	OpenI2C@sync_mode,w,c
  2037  0039A4  12C6               	iorwf	4038,f,c	;volatile
  2038  0039A6  5001               	movf	OpenI2C@slew,w,c
  2039  0039A8  12C7               	iorwf	4039,f,c	;volatile
  2040  0039AA  8694               	bsf	3988,3,c	;volatile
  2041  0039AC  8894               	bsf	3988,4,c	;volatile
  2042  0039AE  8AC6               	bsf	4038,5,c	;volatile
  2043  0039B0  0012               	return	
  2044  0039B2  FFFF               	dw	65535	; errata NOP
  2045  0039B4                     __end_of_OpenI2C:
  2046                           	opt stack 0
  2047                           prodh	equ	0xFF4
  2048                           prodl	equ	0xFF3
  2049                           postinc0	equ	0xFEE
  2050                           wreg	equ	0xFE8
  2051                           indf2	equ	0xFDF
  2052                           fsr2h	equ	0xFDA
  2053                           fsr2l	equ	0xFD9
  2054                           status	equ	0xFD8
  2055                           
  2056 ;; *************** function _Delay10KTCYx *****************
  2057 ;; Defined at:
  2058 ;;		line 8 in file "/Applications/microchip/xc8/v1.32/sources/pic18/d10ktcyx.c"
  2059 ;; Parameters:    Size  Location     Type
  2060 ;;  unit            1    wreg     unsigned char 
  2061 ;; Auto vars:     Size  Location     Type
  2062 ;;  unit            1    1[COMRAM] unsigned char 
  2063 ;; Return value:  Size  Location     Type
  2064 ;;		None               void
  2065 ;; Registers used:
  2066 ;;		wreg
  2067 ;; Tracked objects:
  2068 ;;		On entry : 0/0
  2069 ;;		On exit  : 0/0
  2070 ;;		Unchanged: 0/0
  2071 ;; Data sizes:     COMRAM   BANK0   BANK1   BANK2   BANK3   BANK4   BANK5
  2072 ;;      Params:         0       0       0       0       0       0       0
  2073 ;;      Locals:         1       0       0       0       0       0       0
  2074 ;;      Temps:          1       0       0       0       0       0       0
  2075 ;;      Totals:         2       0       0       0       0       0       0
  2076 ;;Total ram usage:        2 bytes
  2077 ;; Hardware stack levels used:    1
  2078 ;; This function calls:
  2079 ;;		Nothing
  2080 ;; This function is called by:
  2081 ;;		_setupCANTxRx
  2082 ;;		_initI2C
  2083 ;;		_initMPU6050
  2084 ;; This function uses a non-reentrant model
  2085 ;;
  2086                           
  2087                           	psect	text19
  2088  0038C2                     __ptext19:
  2089                           	opt stack 0
  2090  0038C2                     _Delay10KTCYx:
  2091                           	opt stack 29
  2092                           
  2093                           ;incstack = 0
  2094  0038C2  FFFF               	dw	65535
  2095                           
  2096                           ;Delay10KTCYx@unit stored from wreg
  2097  0038C4  6E02               	movwf	Delay10KTCYx@unit,c
  2098  0038C6                     l1412:
  2099  0038C6  0E0A               	movlw	10
  2100  0038C8  6E01               	movwf	??_Delay10KTCYx& (0+255),c
  2101  0038CA  0EBE               	movlw	190
  2102  0038CC                     u1847:
  2103  0038CC  2EE8               	decfsz	wreg,f,c
  2104  0038CE  D7FE               	goto	u1847
  2105  0038D0  2E01               	decfsz	??_Delay10KTCYx& (0+255),f,c
  2106  0038D2  D7FC               	goto	u1847
  2107  0038D4  D000               	nop2	
  2108  0038D6  2E02               	decfsz	Delay10KTCYx@unit,f,c
  2109  0038D8  D7F6               	goto	l1412
  2110  0038DA  0012               	return	
  2111  0038DC  FFFF               	dw	65535	; errata NOP
  2112  0038DE                     __end_of_Delay10KTCYx:
  2113                           	opt stack 0
  2114                           prodh	equ	0xFF4
  2115                           prodl	equ	0xFF3
  2116                           postinc0	equ	0xFEE
  2117                           wreg	equ	0xFE8
  2118                           indf2	equ	0xFDF
  2119                           fsr2h	equ	0xFDA
  2120                           fsr2l	equ	0xFD9
  2121                           status	equ	0xFD8
  2122                           
  2123 ;; *************** function _flashLED *****************
  2124 ;; Defined at:
  2125 ;;		line 84 in file "main.c"
  2126 ;; Parameters:    Size  Location     Type
  2127 ;;		None
  2128 ;; Auto vars:     Size  Location     Type
  2129 ;;  count           2    4[COMRAM] int 
  2130 ;; Return value:  Size  Location     Type
  2131 ;;		None               void
  2132 ;; Registers used:
  2133 ;;		wreg, status,2, status,0, cstack
  2134 ;; Tracked objects:
  2135 ;;		On entry : 0/0
  2136 ;;		On exit  : 0/0
  2137 ;;		Unchanged: 0/0
  2138 ;; Data sizes:     COMRAM   BANK0   BANK1   BANK2   BANK3   BANK4   BANK5
  2139 ;;      Params:         0       0       0       0       0       0       0
  2140 ;;      Locals:         2       0       0       0       0       0       0
  2141 ;;      Temps:          0       0       0       0       0       0       0
  2142 ;;      Totals:         2       0       0       0       0       0       0
  2143 ;;Total ram usage:        2 bytes
  2144 ;; Hardware stack levels used:    1
  2145 ;; Hardware stack levels required when called:    1
  2146 ;; This function calls:
  2147 ;;		_delayzz
  2148 ;; This function is called by:
  2149 ;;		_main
  2150 ;; This function uses a non-reentrant model
  2151 ;;
  2152                           
  2153                           	psect	text20
  2154  003A06                     __ptext20:
  2155                           	opt stack 0
  2156  003A06                     _flashLED:
  2157                           	opt stack 29
  2158                           
  2159                           ;incstack = 0
  2160  003A06  FFFF               	dw	65535
  2161                           
  2162                           ;main.c: 85: int count;
  2163                           ;main.c: 86: count = 10;
  2164  003A08  0E00               	movlw	0
  2165  003A0A  6E06               	movwf	flashLED@count+1,c
  2166  003A0C  0E0A               	movlw	10
  2167  003A0E  6E05               	movwf	flashLED@count,c
  2168  003A10                     l2231:
  2169                           
  2170                           ;main.c: 88: LATBbits.LATB0 = 1;
  2171  003A10  808A               	bsf	3978,0,c	;volatile
  2172                           
  2173                           ;main.c: 89: delayzz();
  2174  003A12  EC2E  F01D         	call	_delayzz	;wreg free
  2175                           
  2176                           ;main.c: 90: LATBbits.LATB0 = 0;
  2177  003A16  908A               	bcf	3978,0,c	;volatile
  2178                           
  2179                           ;main.c: 91: delayzz();
  2180  003A18  EC2E  F01D         	call	_delayzz	;wreg free
  2181                           
  2182                           ;main.c: 92: count--;
  2183  003A1C  0605               	decf	flashLED@count,f,c
  2184  003A1E  A0D8               	btfss	status,0,c
  2185  003A20  0606               	decf	flashLED@count+1,f,c
  2186                           
  2187                           ;main.c: 93: if (count == 0)
  2188  003A22  5006               	movf	flashLED@count+1,w,c
  2189  003A24  1005               	iorwf	flashLED@count,w,c
  2190  003A26  B4D8               	btfsc	status,2,c
  2191                           
  2192                           ;main.c: 94: {
  2193                           ;main.c: 95: break;
  2194  003A28  0012               	return	
  2195  003A2A  FFFF               	dw	65535	; assembler added errata NOP
  2196  003A2C  D7F1               	goto	l2231
  2197  003A2E  FFFF               	dw	65535	; errata NOP
  2198  003A30                     __end_of_flashLED:
  2199                           	opt stack 0
  2200                           prodh	equ	0xFF4
  2201                           prodl	equ	0xFF3
  2202                           postinc0	equ	0xFEE
  2203                           wreg	equ	0xFE8
  2204                           indf2	equ	0xFDF
  2205                           fsr2h	equ	0xFDA
  2206                           fsr2l	equ	0xFD9
  2207                           status	equ	0xFD8
  2208                           
  2209 ;; *************** function _delayzz *****************
  2210 ;; Defined at:
  2211 ;;		line 124 in file "../pic18f458_badgerloop.c"
  2212 ;; Parameters:    Size  Location     Type
  2213 ;;		None
  2214 ;; Auto vars:     Size  Location     Type
  2215 ;;  j               2    2[COMRAM] int 
  2216 ;;  i               2    0[COMRAM] int 
  2217 ;; Return value:  Size  Location     Type
  2218 ;;		None               void
  2219 ;; Registers used:
  2220 ;;		wreg, status,2, status,0
  2221 ;; Tracked objects:
  2222 ;;		On entry : 0/0
  2223 ;;		On exit  : 0/0
  2224 ;;		Unchanged: 0/0
  2225 ;; Data sizes:     COMRAM   BANK0   BANK1   BANK2   BANK3   BANK4   BANK5
  2226 ;;      Params:         0       0       0       0       0       0       0
  2227 ;;      Locals:         4       0       0       0       0       0       0
  2228 ;;      Temps:          0       0       0       0       0       0       0
  2229 ;;      Totals:         4       0       0       0       0       0       0
  2230 ;;Total ram usage:        4 bytes
  2231 ;; Hardware stack levels used:    1
  2232 ;; This function calls:
  2233 ;;		Nothing
  2234 ;; This function is called by:
  2235 ;;		_flashLED
  2236 ;;		_main
  2237 ;; This function uses a non-reentrant model
  2238 ;;
  2239                           
  2240                           	psect	text21
  2241  003A5C                     __ptext21:
  2242                           	opt stack 0
  2243  003A5C                     _delayzz:
  2244                           	opt stack 29
  2245                           
  2246                           ;incstack = 0
  2247  003A5C  FFFF               	dw	65535
  2248                           
  2249                           ;pic18f458_badgerloop.c: 125: int i, j;
  2250                           ;pic18f458_badgerloop.c: 126: for(i=0;i<5000;i++)
  2251  003A5E  0E00               	movlw	0
  2252  003A60  6E02               	movwf	delayzz@i+1,c
  2253  003A62  0E00               	movlw	0
  2254  003A64  6E01               	movwf	delayzz@i,c
  2255  003A66  5002               	movf	delayzz@i+1,w,c
  2256  003A68  0A80               	xorlw	128
  2257  003A6A  0F6D               	addlw	-147
  2258  003A6C  0E88               	movlw	136
  2259  003A6E  B4D8               	btfsc	status,2,c
  2260  003A70  5C01               	subwf	delayzz@i,w,c
  2261  003A72  B0D8               	btfsc	status,0,c
  2262  003A74  D012               	goto	l1035
  2263                           
  2264                           ;pic18f458_badgerloop.c: 127: {
  2265                           ;pic18f458_badgerloop.c: 128: for(j=0;j<2;j++)
  2266  003A76  0E00               	movlw	0
  2267  003A78  6E04               	movwf	delayzz@j+1,c
  2268  003A7A  0E00               	movlw	0
  2269  003A7C  6E03               	movwf	delayzz@j,c
  2270  003A7E  5004               	movf	delayzz@j+1,w,c
  2271  003A80  0A80               	xorlw	128
  2272  003A82  0F80               	addlw	-128
  2273  003A84  0E02               	movlw	2
  2274  003A86  B4D8               	btfsc	status,2,c
  2275  003A88  5C03               	subwf	delayzz@j,w,c
  2276  003A8A  B0D8               	btfsc	status,0,c
  2277  003A8C  D003               	goto	l2041
  2278                           
  2279                           ;pic18f458_badgerloop.c: 129: {
  2280  003A8E  4A03               	infsnz	delayzz@j,f,c
  2281  003A90  2A04               	incf	delayzz@j+1,f,c
  2282  003A92  D7F5               	goto	L1
  2283  003A94                     l2041:
  2284  003A94  4A01               	infsnz	delayzz@i,f,c
  2285  003A96  2A02               	incf	delayzz@i+1,f,c
  2286  003A98  D7E6               	goto	L2
  2287  003A9A                     l1035:
  2288  003A9A  0012               	return	
  2289  003A9C  FFFF               	dw	65535	; errata NOP
  2290  003A9E                     __end_of_delayzz:
  2291                           	opt stack 0
  2292                           prodh	equ	0xFF4
  2293                           prodl	equ	0xFF3
  2294                           postinc0	equ	0xFEE
  2295                           wreg	equ	0xFE8
  2296                           indf2	equ	0xFDF
  2297                           fsr2h	equ	0xFDA
  2298                           fsr2l	equ	0xFD9
  2299                           status	equ	0xFD8
  2300                           
  2301 ;; *************** function _MPU6050_getMotion6 *****************
  2302 ;; Defined at:
  2303 ;;		line 1733 in file "../MPU6050.c"
  2304 ;; Parameters:    Size  Location     Type
  2305 ;;  ax              2   18[COMRAM] PTR int 
  2306 ;;		 -> main@ax(2), 
  2307 ;;  ay              2   20[COMRAM] PTR int 
  2308 ;;		 -> main@ay(2), 
  2309 ;;  az              2   22[COMRAM] PTR int 
  2310 ;;		 -> main@az(2), 
  2311 ;;  gx              2   24[COMRAM] PTR int 
  2312 ;;		 -> main@gx(2), 
  2313 ;;  gy              2   26[COMRAM] PTR int 
  2314 ;;		 -> main@gy(2), 
  2315 ;;  gz              2   28[COMRAM] PTR int 
  2316 ;;		 -> main@gz(2), 
  2317 ;; Auto vars:     Size  Location     Type
  2318 ;;		None
  2319 ;; Return value:  Size  Location     Type
  2320 ;;		None               void
  2321 ;; Registers used:
  2322 ;;		wreg, fsr2l, fsr2h, status,2, status,0, prodl, prodh, cstack
  2323 ;; Tracked objects:
  2324 ;;		On entry : 0/0
  2325 ;;		On exit  : 0/0
  2326 ;;		Unchanged: 0/0
  2327 ;; Data sizes:     COMRAM   BANK0   BANK1   BANK2   BANK3   BANK4   BANK5
  2328 ;;      Params:        12       0       0       0       0       0       0
  2329 ;;      Locals:         0       0       0       0       0       0       0
  2330 ;;      Temps:          2       0       0       0       0       0       0
  2331 ;;      Totals:        14       0       0       0       0       0       0
  2332 ;;Total ram usage:       14 bytes
  2333 ;; Hardware stack levels used:    1
  2334 ;; Hardware stack levels required when called:    3
  2335 ;; This function calls:
  2336 ;;		_I2Cdev_readBytes
  2337 ;; This function is called by:
  2338 ;;		_main
  2339 ;;		_MPU6050_getMotion9
  2340 ;; This function uses a non-reentrant model
  2341 ;;
  2342                           
  2343                           	psect	text22
  2344  003F0C                     __ptext22:
  2345                           	opt stack 0
  2346  003F0C                     _MPU6050_getMotion6:
  2347                           	opt stack 27
  2348                           
  2349                           ;incstack = 0
  2350  003F0C  FFFF               	dw	65535
  2351                           
  2352                           ;MPU6050.c: 1734: I2Cdev_readBytes(mpu6050.devAddr, 0x3B, 14, mpu6050.buffer);
  2353  003F0E  0E3B               	movlw	59
  2354  003F10  6E07               	movwf	I2Cdev_readBytes@regAddr,c
  2355  003F12  0E0E               	movlw	14
  2356  003F14  6E08               	movwf	I2Cdev_readBytes@length,c
  2357  003F16  0E00               	movlw	high (_mpu6050+1)
  2358  003F18  6E0A               	movwf	I2Cdev_readBytes@data+1,c
  2359  003F1A  0E41               	movlw	low (_mpu6050+1)
  2360  003F1C  6E09               	movwf	I2Cdev_readBytes@data,c
  2361  003F1E  5040               	movf	_mpu6050,w,c
  2362  003F20  EC0F  F01F         	call	_I2Cdev_readBytes
  2363                           
  2364                           ;MPU6050.c: 1735: *ax = (((int16_t)mpu6050.buffer[0]) << 8) | mpu6050.buffer[1];
  2365  003F24  5042               	movf	_mpu6050+2,w,c
  2366  003F26  C041  F01F         	movff	_mpu6050+1,??_MPU6050_getMotion6
  2367  003F2A  6A20               	clrf	(??_MPU6050_getMotion6+1)& (0+255),c
  2368  003F2C  C01F  F020         	movff	??_MPU6050_getMotion6,??_MPU6050_getMotion6+1
  2369  003F30  6A1F               	clrf	??_MPU6050_getMotion6,c
  2370  003F32  121F               	iorwf	??_MPU6050_getMotion6,f,c
  2371  003F34  0E00               	movlw	0
  2372  003F36  1220               	iorwf	??_MPU6050_getMotion6+1,f,c
  2373  003F38  C013  FFD9         	movff	MPU6050_getMotion6@ax,fsr2l
  2374  003F3C  C014  FFDA         	movff	MPU6050_getMotion6@ax+1,fsr2h
  2375  003F40  C01F  FFDE         	movff	??_MPU6050_getMotion6,postinc2
  2376  003F44  C020  FFDD         	movff	??_MPU6050_getMotion6+1,postdec2
  2377                           
  2378                           ;MPU6050.c: 1736: *ay = (((int16_t)mpu6050.buffer[2]) << 8) | mpu6050.buffer[3];
  2379  003F48  5044               	movf	_mpu6050+4,w,c
  2380  003F4A  C043  F01F         	movff	_mpu6050+3,??_MPU6050_getMotion6
  2381  003F4E  6A20               	clrf	(??_MPU6050_getMotion6+1)& (0+255),c
  2382  003F50  C01F  F020         	movff	??_MPU6050_getMotion6,??_MPU6050_getMotion6+1
  2383  003F54  6A1F               	clrf	??_MPU6050_getMotion6,c
  2384  003F56  121F               	iorwf	??_MPU6050_getMotion6,f,c
  2385  003F58  0E00               	movlw	0
  2386  003F5A  1220               	iorwf	??_MPU6050_getMotion6+1,f,c
  2387  003F5C  C015  FFD9         	movff	MPU6050_getMotion6@ay,fsr2l
  2388  003F60  C016  FFDA         	movff	MPU6050_getMotion6@ay+1,fsr2h
  2389  003F64  C01F  FFDE         	movff	??_MPU6050_getMotion6,postinc2
  2390  003F68  C020  FFDD         	movff	??_MPU6050_getMotion6+1,postdec2
  2391                           
  2392                           ;MPU6050.c: 1737: *az = (((int16_t)mpu6050.buffer[4]) << 8) | mpu6050.buffer[5];
  2393  003F6C  5046               	movf	_mpu6050+6,w,c
  2394  003F6E  C045  F01F         	movff	_mpu6050+5,??_MPU6050_getMotion6
  2395  003F72  6A20               	clrf	(??_MPU6050_getMotion6+1)& (0+255),c
  2396  003F74  C01F  F020         	movff	??_MPU6050_getMotion6,??_MPU6050_getMotion6+1
  2397  003F78  6A1F               	clrf	??_MPU6050_getMotion6,c
  2398  003F7A  121F               	iorwf	??_MPU6050_getMotion6,f,c
  2399  003F7C  0E00               	movlw	0
  2400  003F7E  1220               	iorwf	??_MPU6050_getMotion6+1,f,c
  2401  003F80  C017  FFD9         	movff	MPU6050_getMotion6@az,fsr2l
  2402  003F84  C018  FFDA         	movff	MPU6050_getMotion6@az+1,fsr2h
  2403  003F88  C01F  FFDE         	movff	??_MPU6050_getMotion6,postinc2
  2404  003F8C  C020  FFDD         	movff	??_MPU6050_getMotion6+1,postdec2
  2405                           
  2406                           ;MPU6050.c: 1738: *gx = (((int16_t)mpu6050.buffer[8]) << 8) | mpu6050.buffer[9];
  2407  003F90  504A               	movf	_mpu6050+10,w,c
  2408  003F92  C049  F01F         	movff	_mpu6050+9,??_MPU6050_getMotion6
  2409  003F96  6A20               	clrf	(??_MPU6050_getMotion6+1)& (0+255),c
  2410  003F98  C01F  F020         	movff	??_MPU6050_getMotion6,??_MPU6050_getMotion6+1
  2411  003F9C  6A1F               	clrf	??_MPU6050_getMotion6,c
  2412  003F9E  121F               	iorwf	??_MPU6050_getMotion6,f,c
  2413  003FA0  0E00               	movlw	0
  2414  003FA2  1220               	iorwf	??_MPU6050_getMotion6+1,f,c
  2415  003FA4  C019  FFD9         	movff	MPU6050_getMotion6@gx,fsr2l
  2416  003FA8  C01A  FFDA         	movff	MPU6050_getMotion6@gx+1,fsr2h
  2417  003FAC  C01F  FFDE         	movff	??_MPU6050_getMotion6,postinc2
  2418  003FB0  C020  FFDD         	movff	??_MPU6050_getMotion6+1,postdec2
  2419                           
  2420                           ;MPU6050.c: 1739: *gy = (((int16_t)mpu6050.buffer[10]) << 8) | mpu6050.buffer[11];
  2421  003FB4  504C               	movf	_mpu6050+12,w,c
  2422  003FB6  C04B  F01F         	movff	_mpu6050+11,??_MPU6050_getMotion6
  2423  003FBA  6A20               	clrf	(??_MPU6050_getMotion6+1)& (0+255),c
  2424  003FBC  C01F  F020         	movff	??_MPU6050_getMotion6,??_MPU6050_getMotion6+1
  2425  003FC0  6A1F               	clrf	??_MPU6050_getMotion6,c
  2426  003FC2  121F               	iorwf	??_MPU6050_getMotion6,f,c
  2427  003FC4  0E00               	movlw	0
  2428  003FC6  1220               	iorwf	??_MPU6050_getMotion6+1,f,c
  2429  003FC8  C01B  FFD9         	movff	MPU6050_getMotion6@gy,fsr2l
  2430  003FCC  C01C  FFDA         	movff	MPU6050_getMotion6@gy+1,fsr2h
  2431  003FD0  C01F  FFDE         	movff	??_MPU6050_getMotion6,postinc2
  2432  003FD4  C020  FFDD         	movff	??_MPU6050_getMotion6+1,postdec2
  2433                           
  2434                           ;MPU6050.c: 1740: *gz = (((int16_t)mpu6050.buffer[12]) << 8) | mpu6050.buffer[13];
  2435  003FD8  504E               	movf	_mpu6050+14,w,c
  2436  003FDA  C04D  F01F         	movff	_mpu6050+13,??_MPU6050_getMotion6
  2437  003FDE  6A20               	clrf	(??_MPU6050_getMotion6+1)& (0+255),c
  2438  003FE0  C01F  F020         	movff	??_MPU6050_getMotion6,??_MPU6050_getMotion6+1
  2439  003FE4  6A1F               	clrf	??_MPU6050_getMotion6,c
  2440  003FE6  121F               	iorwf	??_MPU6050_getMotion6,f,c
  2441  003FE8  0E00               	movlw	0
  2442  003FEA  1220               	iorwf	??_MPU6050_getMotion6+1,f,c
  2443  003FEC  C01D  FFD9         	movff	MPU6050_getMotion6@gz,fsr2l
  2444  003FF0  C01E  FFDA         	movff	MPU6050_getMotion6@gz+1,fsr2h
  2445  003FF4  C01F  FFDE         	movff	??_MPU6050_getMotion6,postinc2
  2446  003FF8  C020  FFDD         	movff	??_MPU6050_getMotion6+1,postdec2
  2447  003FFC  0012               	return	
  2448  003FFE  FFFF               	dw	65535	; errata NOP
  2449  004000                     __end_of_MPU6050_getMotion6:
  2450                           	opt stack 0
  2451                           prodh	equ	0xFF4
  2452                           prodl	equ	0xFF3
  2453                           postinc0	equ	0xFEE
  2454                           wreg	equ	0xFE8
  2455                           indf2	equ	0xFDF
  2456                           postinc2	equ	0xFDE
  2457                           postdec2	equ	0xFDD
  2458                           fsr2h	equ	0xFDA
  2459                           fsr2l	equ	0xFD9
  2460                           status	equ	0xFD8
  2461                           
  2462 ;; *************** function _I2Cdev_readBytes *****************
  2463 ;; Defined at:
  2464 ;;		line 43 in file "../I2Cdev.c"
  2465 ;; Parameters:    Size  Location     Type
  2466 ;;  devAddr         1    wreg     unsigned char 
  2467 ;;  regAddr         1    6[COMRAM] unsigned char 
  2468 ;;  length          1    7[COMRAM] unsigned char 
  2469 ;;  data            2    8[COMRAM] PTR unsigned char 
  2470 ;;		 -> mpu6050(15), I2Cdev_writeBits@b(1), I2Cdev_writeBit@b(1), I2Cdev_readBits@b(1), 
  2471 ;;		 -> I2Cdev_readBit@b(1), 
  2472 ;; Auto vars:     Size  Location     Type
  2473 ;;  devAddr         1   16[COMRAM] unsigned char 
  2474 ;;  count           1   17[COMRAM] char 
  2475 ;; Return value:  Size  Location     Type
  2476 ;;                  1    wreg      char 
  2477 ;; Registers used:
  2478 ;;		wreg, fsr2l, fsr2h, status,2, status,0, prodl, prodh, cstack
  2479 ;; Tracked objects:
  2480 ;;		On entry : 0/0
  2481 ;;		On exit  : 0/0
  2482 ;;		Unchanged: 0/0
  2483 ;; Data sizes:     COMRAM   BANK0   BANK1   BANK2   BANK3   BANK4   BANK5
  2484 ;;      Params:         4       0       0       0       0       0       0
  2485 ;;      Locals:         2       0       0       0       0       0       0
  2486 ;;      Temps:          6       0       0       0       0       0       0
  2487 ;;      Totals:        12       0       0       0       0       0       0
  2488 ;;Total ram usage:       12 bytes
  2489 ;; Hardware stack levels used:    1
  2490 ;; Hardware stack levels required when called:    2
  2491 ;; This function calls:
  2492 ;;		_IdleI2C
  2493 ;;		_ReadI2C
  2494 ;;		_WriteI2C
  2495 ;;		___wmul
  2496 ;; This function is called by:
  2497 ;;		_I2Cdev_readByte
  2498 ;;		_MPU6050_getMotion6
  2499 ;;		_MPU6050_getAcceleration
  2500 ;;		_MPU6050_getAccelerationX
  2501 ;;		_MPU6050_getAccelerationY
  2502 ;;		_MPU6050_getAccelerationZ
  2503 ;;		_MPU6050_getTemperature
  2504 ;;		_MPU6050_getRotation
  2505 ;;		_MPU6050_getRotationX
  2506 ;;		_MPU6050_getRotationY
  2507 ;;		_MPU6050_getRotationZ
  2508 ;;		_MPU6050_getExternalSensorWord
  2509 ;;		_MPU6050_getExternalSensorDWord
  2510 ;;		_MPU6050_getFIFOCount
  2511 ;;		_MPU6050_getFIFOBytes
  2512 ;;		_MPU6050_getXAccelOffset
  2513 ;;		_MPU6050_getYAccelOffset
  2514 ;;		_MPU6050_getZAccelOffset
  2515 ;;		_MPU6050_getXGyroOffset
  2516 ;;		_MPU6050_getYGyroOffset
  2517 ;;		_MPU6050_getZGyroOffset
  2518 ;;		_MPU6050_readMemoryBlock
  2519 ;; This function uses a non-reentrant model
  2520 ;;
  2521                           
  2522                           	psect	text23
  2523  003E1E                     __ptext23:
  2524                           	opt stack 0
  2525  003E1E                     _I2Cdev_readBytes:
  2526                           	opt stack 23
  2527                           
  2528                           ;incstack = 0
  2529  003E1E  FFFF               	dw	65535
  2530                           
  2531                           ;I2Cdev_readBytes@devAddr stored from wreg
  2532  003E20  6E11               	movwf	I2Cdev_readBytes@devAddr,c
  2533                           
  2534                           ;I2Cdev.c: 44: int8_t count = 0;
  2535  003E22  0E00               	movlw	0
  2536  003E24  6E12               	movwf	I2Cdev_readBytes@count,c
  2537                           
  2538                           ;I2Cdev.c: 47: IdleI2C();
  2539  003E26  EC29  F01C         	call	_IdleI2C	;wreg free
  2540                           
  2541                           ;I2Cdev.c: 48: SSPCON2bits.SEN=1;while(SSPCON2bits.SEN);
  2542  003E2A  80C5               	bsf	4037,0,c	;volatile
  2543  003E2C                     l113:
  2544  003E2C  B0C5               	btfsc	4037,0,c	;volatile
  2545  003E2E  D7FE               	goto	l113
  2546                           
  2547                           ;I2Cdev.c: 51: IdleI2C();
  2548  003E30  EC29  F01C         	call	_IdleI2C	;wreg free
  2549                           
  2550                           ;I2Cdev.c: 52: WriteI2C(devAddr << 1 | 0x00);
  2551  003E34  5011               	movf	I2Cdev_readBytes@devAddr,w,c
  2552  003E36  2411               	addwf	I2Cdev_readBytes@devAddr,w,c
  2553  003E38  ECAE  F01D         	call	_WriteI2C
  2554                           
  2555                           ;I2Cdev.c: 55: IdleI2C();
  2556  003E3C  EC29  F01C         	call	_IdleI2C	;wreg free
  2557                           
  2558                           ;I2Cdev.c: 56: WriteI2C(regAddr);
  2559  003E40  5007               	movf	I2Cdev_readBytes@regAddr,w,c
  2560  003E42  ECAE  F01D         	call	_WriteI2C
  2561                           
  2562                           ;I2Cdev.c: 59: IdleI2C();
  2563  003E46  EC29  F01C         	call	_IdleI2C	;wreg free
  2564                           
  2565                           ;I2Cdev.c: 60: SSPCON2bits.RSEN=1;while(SSPCON2bits.RSEN);
  2566  003E4A  82C5               	bsf	4037,1,c	;volatile
  2567  003E4C                     l116:
  2568  003E4C  B2C5               	btfsc	4037,1,c	;volatile
  2569  003E4E  D7FE               	goto	l116
  2570                           
  2571                           ;I2Cdev.c: 63: IdleI2C();
  2572  003E50  EC29  F01C         	call	_IdleI2C	;wreg free
  2573                           
  2574                           ;I2Cdev.c: 64: WriteI2C(devAddr << 1 | 0x01);
  2575  003E54  80D8               	bsf	status,0,c
  2576  003E56  3411               	rlcf	I2Cdev_readBytes@devAddr,w,c
  2577  003E58  ECAE  F01D         	call	_WriteI2C
  2578                           
  2579                           ;I2Cdev.c: 66: for (count = 0; count < length; count++) {
  2580  003E5C  0E00               	movlw	0
  2581  003E5E  6E12               	movwf	I2Cdev_readBytes@count,c
  2582  003E60  D03B               	goto	l3265
  2583  003E62                     l3245:
  2584                           
  2585                           ;I2Cdev.c: 68: IdleI2C();
  2586  003E62  EC29  F01C         	call	_IdleI2C	;wreg free
  2587                           
  2588                           ;I2Cdev.c: 69: data[count] = ReadI2C();
  2589  003E66  5012               	movf	I2Cdev_readBytes@count,w,c
  2590  003E68  6E01               	movwf	___wmul@multiplier,c
  2591  003E6A  6A02               	clrf	___wmul@multiplier+1,c
  2592  003E6C  BE01               	btfsc	___wmul@multiplier,7,c
  2593  003E6E  0602               	decf	___wmul@multiplier+1,f,c
  2594  003E70  0E00               	movlw	0
  2595  003E72  6E04               	movwf	___wmul@multiplicand+1,c
  2596  003E74  0E01               	movlw	1
  2597  003E76  6E03               	movwf	___wmul@multiplicand,c
  2598  003E78  ECEE  F01C         	call	___wmul	;wreg free
  2599  003E7C  5001               	movf	?___wmul,w,c
  2600  003E7E  2409               	addwf	I2Cdev_readBytes@data,w,c
  2601  003E80  6ED9               	movwf	fsr2l,c
  2602  003E82  5002               	movf	?___wmul+1,w,c
  2603  003E84  200A               	addwfc	I2Cdev_readBytes@data+1,w,c
  2604  003E86  6EDA               	movwf	fsr2h,c
  2605  003E88  EC18  F01D         	call	_ReadI2C	;wreg free
  2606  003E8C  6EDF               	movwf	indf2,c
  2607                           
  2608                           ;I2Cdev.c: 71: if (count == length - 1) {
  2609  003E8E  C012  F00B         	movff	I2Cdev_readBytes@count,??_I2Cdev_readBytes
  2610  003E92  6A0C               	clrf	(??_I2Cdev_readBytes+1)& (0+255),c
  2611  003E94  BE0B               	btfsc	??_I2Cdev_readBytes& (0+255),7,c
  2612  003E96  060C               	decf	(??_I2Cdev_readBytes+1)& (0+255),f,c
  2613  003E98  0EFF               	movlw	255
  2614  003E9A  6E0D               	movwf	(??_I2Cdev_readBytes+2)& (0+255),c
  2615  003E9C  0EFF               	movlw	255
  2616  003E9E  6E0E               	movwf	(??_I2Cdev_readBytes+3)& (0+255),c
  2617  003EA0  5008               	movf	I2Cdev_readBytes@length,w,c
  2618  003EA2  6E0F               	movwf	(??_I2Cdev_readBytes+4)& (0+255),c
  2619  003EA4  6A10               	clrf	(??_I2Cdev_readBytes+5)& (0+255),c
  2620  003EA6  500D               	movf	??_I2Cdev_readBytes+2,w,c
  2621  003EA8  260F               	addwf	??_I2Cdev_readBytes+4,f,c
  2622  003EAA  500E               	movf	??_I2Cdev_readBytes+3,w,c
  2623  003EAC  2210               	addwfc	??_I2Cdev_readBytes+5,f,c
  2624  003EAE  500C               	movf	??_I2Cdev_readBytes+1,w,c
  2625  003EB0  1810               	xorwf	??_I2Cdev_readBytes+5,w,c
  2626  003EB2  E102               	bnz	u1175
  2627  003EB4  500B               	movf	??_I2Cdev_readBytes,w,c
  2628  003EB6  180F               	xorwf	??_I2Cdev_readBytes+4,w,c
  2629  003EB8                     u1175:
  2630  003EB8  A4D8               	btfss	status,2,c
  2631  003EBA  D007               	goto	l3257
  2632                           
  2633                           ;I2Cdev.c: 73: IdleI2C();
  2634  003EBC  EC29  F01C         	call	_IdleI2C	;wreg free
  2635                           
  2636                           ;I2Cdev.c: 74: SSPCON2bits.ACKDT=1;SSPCON2bits.ACKEN=1;while(SSPCON2bits.ACKEN);
  2637  003EC0  8AC5               	bsf	4037,5,c	;volatile
  2638  003EC2  88C5               	bsf	4037,4,c	;volatile
  2639  003EC4                     l122:
  2640  003EC4  A8C5               	btfss	4037,4,c	;volatile
  2641  003EC6  D007               	goto	l3263
  2642  003EC8  D7FD               	goto	l122
  2643  003ECA                     l3257:
  2644                           
  2645                           ;I2Cdev.c: 77: IdleI2C();
  2646  003ECA  EC29  F01C         	call	_IdleI2C	;wreg free
  2647                           
  2648                           ;I2Cdev.c: 78: SSPCON2bits.ACKDT=0;SSPCON2bits.ACKEN=1;while(SSPCON2bits.ACKEN);
  2649  003ECE  9AC5               	bcf	4037,5,c	;volatile
  2650  003ED0  88C5               	bsf	4037,4,c	;volatile
  2651  003ED2                     l126:
  2652  003ED2  B8C5               	btfsc	4037,4,c	;volatile
  2653  003ED4  D7FE               	goto	l126
  2654  003ED6                     l3263:
  2655  003ED6  2A12               	incf	I2Cdev_readBytes@count,f,c
  2656  003ED8                     l3265:
  2657  003ED8  5008               	movf	I2Cdev_readBytes@length,w,c
  2658  003EDA  6E0B               	movwf	??_I2Cdev_readBytes& (0+255),c
  2659  003EDC  6A0C               	clrf	(??_I2Cdev_readBytes+1)& (0+255),c
  2660  003EDE  C012  F00D         	movff	I2Cdev_readBytes@count,??_I2Cdev_readBytes+2
  2661  003EE2  6A0E               	clrf	(??_I2Cdev_readBytes+3)& (0+255),c
  2662  003EE4  BE0D               	btfsc	(??_I2Cdev_readBytes+2)& (0+255),7,c
  2663  003EE6  060E               	decf	(??_I2Cdev_readBytes+3)& (0+255),f,c
  2664  003EE8  500E               	movf	??_I2Cdev_readBytes+3,w,c
  2665  003EEA  0A80               	xorlw	128
  2666  003EEC  6E0F               	movwf	(??_I2Cdev_readBytes+4)& (0+255),c
  2667  003EEE  500B               	movf	??_I2Cdev_readBytes,w,c
  2668  003EF0  5C0D               	subwf	??_I2Cdev_readBytes+2,w,c
  2669  003EF2  500C               	movf	??_I2Cdev_readBytes+1,w,c
  2670  003EF4  0A80               	xorlw	128
  2671  003EF6  580F               	subwfb	(??_I2Cdev_readBytes+4)& (0+255),w,c
  2672  003EF8  A0D8               	btfss	status,0,c
  2673  003EFA  D7B3               	goto	l3245
  2674                           
  2675                           ;I2Cdev.c: 79: }
  2676                           ;I2Cdev.c: 80: }
  2677                           ;I2Cdev.c: 83: IdleI2C();
  2678  003EFC  EC29  F01C         	call	_IdleI2C	;wreg free
  2679                           
  2680                           ;I2Cdev.c: 84: SSPCON2bits.PEN=1;while(SSPCON2bits.PEN);
  2681  003F00  84C5               	bsf	4037,2,c	;volatile
  2682  003F02                     l130:
  2683  003F02  B4C5               	btfsc	4037,2,c	;volatile
  2684  003F04  D7FE               	goto	l130
  2685                           
  2686                           ;I2Cdev.c: 86: return count;
  2687  003F06  5012               	movf	I2Cdev_readBytes@count,w,c
  2688  003F08  0012               	return	
  2689  003F0A  FFFF               	dw	65535	; errata NOP
  2690  003F0C                     __end_of_I2Cdev_readBytes:
  2691                           	opt stack 0
  2692                           prodh	equ	0xFF4
  2693                           prodl	equ	0xFF3
  2694                           postinc0	equ	0xFEE
  2695                           wreg	equ	0xFE8
  2696                           indf2	equ	0xFDF
  2697                           postinc2	equ	0xFDE
  2698                           postdec2	equ	0xFDD
  2699                           fsr2h	equ	0xFDA
  2700                           fsr2l	equ	0xFD9
  2701                           status	equ	0xFD8
  2702                           
  2703 ;; *************** function ___wmul *****************
  2704 ;; Defined at:
  2705 ;;		line 15 in file "/Applications/microchip/xc8/v1.32/sources/common/Umul16.c"
  2706 ;; Parameters:    Size  Location     Type
  2707 ;;  multiplier      2    0[COMRAM] unsigned int 
  2708 ;;  multiplicand    2    2[COMRAM] unsigned int 
  2709 ;; Auto vars:     Size  Location     Type
  2710 ;;  product         2    4[COMRAM] unsigned int 
  2711 ;; Return value:  Size  Location     Type
  2712 ;;                  2    0[COMRAM] unsigned int 
  2713 ;; Registers used:
  2714 ;;		wreg, status,2, status,0, prodl, prodh
  2715 ;; Tracked objects:
  2716 ;;		On entry : 0/0
  2717 ;;		On exit  : 0/0
  2718 ;;		Unchanged: 0/0
  2719 ;; Data sizes:     COMRAM   BANK0   BANK1   BANK2   BANK3   BANK4   BANK5
  2720 ;;      Params:         4       0       0       0       0       0       0
  2721 ;;      Locals:         2       0       0       0       0       0       0
  2722 ;;      Temps:          0       0       0       0       0       0       0
  2723 ;;      Totals:         6       0       0       0       0       0       0
  2724 ;;Total ram usage:        6 bytes
  2725 ;; Hardware stack levels used:    1
  2726 ;; This function calls:
  2727 ;;		Nothing
  2728 ;; This function is called by:
  2729 ;;		_I2Cdev_readBytes
  2730 ;;		_I2Cdev_readWords
  2731 ;; This function uses a non-reentrant model
  2732 ;;
  2733                           
  2734                           	psect	text24
  2735  0039DC                     __ptext24:
  2736                           	opt stack 0
  2737  0039DC                     ___wmul:
  2738                           	opt stack 24
  2739                           
  2740                           ;incstack = 0
  2741  0039DC  FFFF               	dw	65535
  2742  0039DE  5001               	movf	___wmul@multiplier,w,c
  2743  0039E0  0203               	mulwf	___wmul@multiplicand,c
  2744  0039E2  CFF3 F005          	movff	prodl,___wmul@product
  2745  0039E6  CFF4 F006          	movff	prodh,___wmul@product+1
  2746  0039EA  5001               	movf	___wmul@multiplier,w,c
  2747  0039EC  0204               	mulwf	___wmul@multiplicand+1,c
  2748  0039EE  50F3               	movf	prodl,w,c
  2749  0039F0  2606               	addwf	___wmul@product+1,f,c
  2750  0039F2  5002               	movf	___wmul@multiplier+1,w,c
  2751  0039F4  0203               	mulwf	___wmul@multiplicand,c
  2752  0039F6  50F3               	movf	prodl,w,c
  2753  0039F8  2606               	addwf	___wmul@product+1,f,c
  2754  0039FA  C005  F001         	movff	___wmul@product,?___wmul
  2755  0039FE  C006  F002         	movff	___wmul@product+1,?___wmul+1
  2756  003A02  0012               	return	
  2757  003A04  FFFF               	dw	65535	; errata NOP
  2758  003A06                     __end_of___wmul:
  2759                           	opt stack 0
  2760                           prodh	equ	0xFF4
  2761                           prodl	equ	0xFF3
  2762                           postinc0	equ	0xFEE
  2763                           wreg	equ	0xFE8
  2764                           indf2	equ	0xFDF
  2765                           postinc2	equ	0xFDE
  2766                           postdec2	equ	0xFDD
  2767                           fsr2h	equ	0xFDA
  2768                           fsr2l	equ	0xFD9
  2769                           status	equ	0xFD8
  2770                           
  2771 ;; *************** function _WriteI2C *****************
  2772 ;; Defined at:
  2773 ;;		line 12 in file "/Applications/microchip/xc8/v1.32/sources/pic18/plib/i2c/i2c_writ.c"
  2774 ;; Parameters:    Size  Location     Type
  2775 ;;  data_out        1    wreg     unsigned char 
  2776 ;; Auto vars:     Size  Location     Type
  2777 ;;  data_out        1    2[COMRAM] unsigned char 
  2778 ;; Return value:  Size  Location     Type
  2779 ;;                  1    wreg      char 
  2780 ;; Registers used:
  2781 ;;		wreg, status,2, status,0, cstack
  2782 ;; Tracked objects:
  2783 ;;		On entry : 0/0
  2784 ;;		On exit  : 0/0
  2785 ;;		Unchanged: 0/0
  2786 ;; Data sizes:     COMRAM   BANK0   BANK1   BANK2   BANK3   BANK4   BANK5
  2787 ;;      Params:         0       0       0       0       0       0       0
  2788 ;;      Locals:         1       0       0       0       0       0       0
  2789 ;;      Temps:          1       0       0       0       0       0       0
  2790 ;;      Totals:         2       0       0       0       0       0       0
  2791 ;;Total ram usage:        2 bytes
  2792 ;; Hardware stack levels used:    1
  2793 ;; Hardware stack levels required when called:    1
  2794 ;; This function calls:
  2795 ;;		_IdleI2C
  2796 ;; This function is called by:
  2797 ;;		_I2Cdev_readBytes
  2798 ;;		_I2Cdev_writeBytes
  2799 ;;		_I2Cdev_readWords
  2800 ;;		_I2Cdev_writeWords
  2801 ;; This function uses a non-reentrant model
  2802 ;;
  2803                           
  2804                           	psect	text25
  2805  003B5C                     __ptext25:
  2806                           	opt stack 0
  2807  003B5C                     _WriteI2C:
  2808                           	opt stack 23
  2809                           
  2810                           ;incstack = 0
  2811  003B5C  FFFF               	dw	65535
  2812                           
  2813                           ;WriteI2C@data_out stored from wreg
  2814  003B5E  6E03               	movwf	WriteI2C@data_out,c
  2815  003B60  C003  FFC9         	movff	WriteI2C@data_out,4041	;volatile
  2816  003B64  BEC6               	btfsc	4038,7,c	;volatile
  2817  003B66  D02C               	goto	l1170
  2818                           
  2819                           ;	Return value of _WriteI2C is never used
  2820  003B68  CFC6 F002          	movff	4038,??_WriteI2C	;volatile
  2821  003B6C  0E0F               	movlw	15
  2822  003B6E  1602               	andwf	??_WriteI2C,f,c
  2823  003B70  5002               	movf	??_WriteI2C,w,c
  2824  003B72  0A08               	xorlw	8
  2825  003B74  B4D8               	btfsc	status,2,c
  2826  003B76  D00F               	goto	l3205
  2827  003B78  CFC6 F002          	movff	4038,??_WriteI2C	;volatile
  2828  003B7C  0E0F               	movlw	15
  2829  003B7E  1602               	andwf	??_WriteI2C,f,c
  2830  003B80  5002               	movf	??_WriteI2C,w,c
  2831  003B82  0A0B               	xorlw	11
  2832  003B84  B4D8               	btfsc	status,2,c
  2833  003B86  D007               	goto	l3205
  2834  003B88  88C6               	bsf	4038,4,c	;volatile
  2835  003B8A                     l1173:
  2836  003B8A  A69E               	btfss	3998,3,c	;volatile
  2837  003B8C  D7FE               	goto	l1173
  2838  003B8E  B4C7               	btfsc	4039,2,c	;volatile
  2839  003B90  D017               	goto	l1170
  2840  003B92  50C7               	movf	4039,w,c	;volatile
  2841  003B94  D015               	goto	l1170
  2842  003B96                     l3205:
  2843  003B96  CFC6 F002          	movff	4038,??_WriteI2C	;volatile
  2844  003B9A  0E0F               	movlw	15
  2845  003B9C  1602               	andwf	??_WriteI2C,f,c
  2846  003B9E  5002               	movf	??_WriteI2C,w,c
  2847  003BA0  0A08               	xorlw	8
  2848  003BA2  B4D8               	btfsc	status,2,c
  2849  003BA4  D008               	goto	l1182
  2850  003BA6  CFC6 F002          	movff	4038,??_WriteI2C	;volatile
  2851  003BAA  0E0F               	movlw	15
  2852  003BAC  1602               	andwf	??_WriteI2C,f,c
  2853  003BAE  5002               	movf	??_WriteI2C,w,c
  2854  003BB0  0A0B               	xorlw	11
  2855  003BB2  A4D8               	btfss	status,2,c
  2856  003BB4  D005               	goto	l1170
  2857  003BB6                     l1182:
  2858  003BB6  B0C7               	btfsc	4039,0,c	;volatile
  2859  003BB8  D7FE               	goto	l1182
  2860  003BBA  EC29  F01C         	call	_IdleI2C	;wreg free
  2861  003BBE  50C5               	movf	4037,w,c	;volatile
  2862  003BC0                     l1170:
  2863  003BC0  0012               	return	
  2864  003BC2  FFFF               	dw	65535	; errata NOP
  2865  003BC4                     __end_of_WriteI2C:
  2866                           	opt stack 0
  2867                           prodh	equ	0xFF4
  2868                           prodl	equ	0xFF3
  2869                           postinc0	equ	0xFEE
  2870                           wreg	equ	0xFE8
  2871                           indf2	equ	0xFDF
  2872                           postinc2	equ	0xFDE
  2873                           postdec2	equ	0xFDD
  2874                           fsr2h	equ	0xFDA
  2875                           fsr2l	equ	0xFD9
  2876                           status	equ	0xFD8
  2877                           
  2878 ;; *************** function _IdleI2C *****************
  2879 ;; Defined at:
  2880 ;;		line 24 in file "/Applications/microchip/xc8/v1.32/sources/pic18/plib/i2c/i2c_idle.c"
  2881 ;; Parameters:    Size  Location     Type
  2882 ;;		None
  2883 ;; Auto vars:     Size  Location     Type
  2884 ;;		None
  2885 ;; Return value:  Size  Location     Type
  2886 ;;		None               void
  2887 ;; Registers used:
  2888 ;;		wreg, status,2, status,0
  2889 ;; Tracked objects:
  2890 ;;		On entry : 0/0
  2891 ;;		On exit  : 0/0
  2892 ;;		Unchanged: 0/0
  2893 ;; Data sizes:     COMRAM   BANK0   BANK1   BANK2   BANK3   BANK4   BANK5
  2894 ;;      Params:         0       0       0       0       0       0       0
  2895 ;;      Locals:         0       0       0       0       0       0       0
  2896 ;;      Temps:          1       0       0       0       0       0       0
  2897 ;;      Totals:         1       0       0       0       0       0       0
  2898 ;;Total ram usage:        1 bytes
  2899 ;; Hardware stack levels used:    1
  2900 ;; This function calls:
  2901 ;;		Nothing
  2902 ;; This function is called by:
  2903 ;;		_I2Cdev_readBytes
  2904 ;;		_I2Cdev_writeBytes
  2905 ;;		_WriteI2C
  2906 ;;		_I2Cdev_readWords
  2907 ;;		_I2Cdev_writeWords
  2908 ;; This function uses a non-reentrant model
  2909 ;;
  2910                           
  2911                           	psect	text26
  2912  003852                     __ptext26:
  2913                           	opt stack 0
  2914  003852                     _IdleI2C:
  2915                           	opt stack 23
  2916                           
  2917                           ;incstack = 0
  2918  003852  FFFF               	dw	65535
  2919  003854                     l3181:
  2920  003854  CFC5 F001          	movff	4037,??_IdleI2C	;volatile
  2921  003858  0E1F               	movlw	31
  2922  00385A  1601               	andwf	??_IdleI2C,f,c
  2923  00385C  B4D8               	btfsc	status,2,c
  2924  00385E  B4C7               	btfsc	4039,2,c	;volatile
  2925  003860  D7F9               	goto	l3181
  2926  003862  0012               	return	
  2927  003864  FFFF               	dw	65535	; errata NOP
  2928  003866                     __end_of_IdleI2C:
  2929                           	opt stack 0
  2930                           prodh	equ	0xFF4
  2931                           prodl	equ	0xFF3
  2932                           postinc0	equ	0xFEE
  2933                           wreg	equ	0xFE8
  2934                           indf2	equ	0xFDF
  2935                           postinc2	equ	0xFDE
  2936                           postdec2	equ	0xFDD
  2937                           fsr2h	equ	0xFDA
  2938                           fsr2l	equ	0xFD9
  2939                           status	equ	0xFD8
  2940                           
  2941 ;; *************** function _ReadI2C *****************
  2942 ;; Defined at:
  2943 ;;		line 11 in file "/Applications/microchip/xc8/v1.32/sources/pic18/plib/i2c/i2c_read.c"
  2944 ;; Parameters:    Size  Location     Type
  2945 ;;		None
  2946 ;; Auto vars:     Size  Location     Type
  2947 ;;		None
  2948 ;; Return value:  Size  Location     Type
  2949 ;;                  1    wreg      unsigned char 
  2950 ;; Registers used:
  2951 ;;		wreg, status,2, status,0
  2952 ;; Tracked objects:
  2953 ;;		On entry : 0/0
  2954 ;;		On exit  : 0/0
  2955 ;;		Unchanged: 0/0
  2956 ;; Data sizes:     COMRAM   BANK0   BANK1   BANK2   BANK3   BANK4   BANK5
  2957 ;;      Params:         0       0       0       0       0       0       0
  2958 ;;      Locals:         0       0       0       0       0       0       0
  2959 ;;      Temps:          1       0       0       0       0       0       0
  2960 ;;      Totals:         1       0       0       0       0       0       0
  2961 ;;Total ram usage:        1 bytes
  2962 ;; Hardware stack levels used:    1
  2963 ;; This function calls:
  2964 ;;		Nothing
  2965 ;; This function is called by:
  2966 ;;		_I2Cdev_readBytes
  2967 ;;		_I2Cdev_readWords
  2968 ;; This function uses a non-reentrant model
  2969 ;;
  2970                           
  2971                           	psect	text27
  2972  003A30                     __ptext27:
  2973                           	opt stack 0
  2974  003A30                     _ReadI2C:
  2975                           	opt stack 24
  2976                           
  2977                           ;incstack = 0
  2978  003A30  FFFF               	dw	65535
  2979  003A32  CFC6 F001          	movff	4038,??_ReadI2C	;volatile
  2980  003A36  0E0F               	movlw	15
  2981  003A38  1601               	andwf	??_ReadI2C,f,c
  2982  003A3A  5001               	movf	??_ReadI2C,w,c
  2983  003A3C  0A08               	xorlw	8
  2984  003A3E  B4D8               	btfsc	status,2,c
  2985  003A40  D007               	goto	l1148
  2986  003A42  CFC6 F001          	movff	4038,??_ReadI2C	;volatile
  2987  003A46  0E0F               	movlw	15
  2988  003A48  1601               	andwf	??_ReadI2C,f,c
  2989  003A4A  5001               	movf	??_ReadI2C,w,c
  2990  003A4C  0A0B               	xorlw	11
  2991  003A4E  B4D8               	btfsc	status,2,c
  2992  003A50                     l1148:
  2993  003A50  86C5               	bsf	4037,3,c	;volatile
  2994  003A52                     l1149:
  2995  003A52  A0C7               	btfss	4039,0,c	;volatile
  2996  003A54  D7FE               	goto	l1149
  2997  003A56  50C9               	movf	4041,w,c	;volatile
  2998  003A58  0012               	return	
  2999  003A5A  FFFF               	dw	65535	; errata NOP
  3000  003A5C                     __end_of_ReadI2C:
  3001                           	opt stack 0
  3002                           prodh	equ	0xFF4
  3003                           prodl	equ	0xFF3
  3004                           postinc0	equ	0xFEE
  3005                           wreg	equ	0xFE8
  3006                           indf2	equ	0xFDF
  3007                           postinc2	equ	0xFDE
  3008                           postdec2	equ	0xFDD
  3009                           fsr2h	equ	0xFDA
  3010                           fsr2l	equ	0xFD9
  3011                           status	equ	0xFD8
  3012                           
  3013 ;; *************** function _CAN_Transmit *****************
  3014 ;; Defined at:
  3015 ;;		line 18 in file "main.c"
  3016 ;; Parameters:    Size  Location     Type
  3017 ;;		None
  3018 ;; Auto vars:     Size  Location     Type
  3019 ;;  canId           2    3[COMRAM] unsigned int 
  3020 ;; Return value:  Size  Location     Type
  3021 ;;		None               void
  3022 ;; Registers used:
  3023 ;;		wreg, status,2, status,0
  3024 ;; Tracked objects:
  3025 ;;		On entry : 0/0
  3026 ;;		On exit  : 0/0
  3027 ;;		Unchanged: 0/0
  3028 ;; Data sizes:     COMRAM   BANK0   BANK1   BANK2   BANK3   BANK4   BANK5
  3029 ;;      Params:         0       0       0       0       0       0       0
  3030 ;;      Locals:         2       0       0       0       0       0       0
  3031 ;;      Temps:          3       0       0       0       0       0       0
  3032 ;;      Totals:         5       0       0       0       0       0       0
  3033 ;;Total ram usage:        5 bytes
  3034 ;; Hardware stack levels used:    1
  3035 ;; This function calls:
  3036 ;;		Nothing
  3037 ;; This function is called by:
  3038 ;;		_main
  3039 ;; This function uses a non-reentrant model
  3040 ;;
  3041                           
  3042                           	psect	text28
  3043  003C9C                     __ptext28:
  3044                           	opt stack 0
  3045  003C9C                     _CAN_Transmit:
  3046                           	opt stack 30
  3047                           
  3048                           ;incstack = 0
  3049  003C9C  FFFF               	dw	65535
  3050                           
  3051                           ;main.c: 20: uint16_t canId = (1);
  3052  003C9E  0E00               	movlw	0
  3053  003CA0  6E05               	movwf	CAN_Transmit@canId+1,c
  3054  003CA2  0E01               	movlw	1
  3055  003CA4  6E04               	movwf	CAN_Transmit@canId,c
  3056                           
  3057                           ;main.c: 21: canId = (canId<<5);
  3058  003CA6  C004  F001         	movff	CAN_Transmit@canId,??_CAN_Transmit
  3059  003CAA  C005  F002         	movff	CAN_Transmit@canId+1,??_CAN_Transmit+1
  3060  003CAE  0E05               	movlw	5
  3061  003CB0                     u635:
  3062  003CB0  90D8               	bcf	status,0,c
  3063  003CB2  3601               	rlcf	??_CAN_Transmit,f,c
  3064  003CB4  3602               	rlcf	??_CAN_Transmit+1,f,c
  3065  003CB6  2EE8               	decfsz	wreg,f,c
  3066  003CB8  D7FB               	goto	u635
  3067  003CBA  C001  F004         	movff	??_CAN_Transmit,CAN_Transmit@canId
  3068  003CBE  C002  F005         	movff	??_CAN_Transmit+1,CAN_Transmit@canId+1
  3069  003CC2                     l1060:
  3070  003CC2  CF40 F001          	movff	3904,??_CAN_Transmit
  3071  003CC6  B601               	btfsc	??_CAN_Transmit,3,c
  3072  003CC8  D7FC               	goto	l1060
  3073                           
  3074                           ;main.c: 26: TXB0SIDL = (uint8_t)(canId & 0x00E0);
  3075  003CCA  C004  F001         	movff	CAN_Transmit@canId,??_CAN_Transmit
  3076  003CCE  0EE0               	movlw	224
  3077  003CD0  1601               	andwf	??_CAN_Transmit,f,c
  3078  003CD2  C001  FF42         	movff	??_CAN_Transmit,3906
  3079                           
  3080                           ;main.c: 27: TXB0SIDH = (uint8_t)((canId>>8)& 0x00FF);
  3081  003CD6  C005  F001         	movff	CAN_Transmit@canId+1,??_CAN_Transmit
  3082  003CDA  C001  F002         	movff	??_CAN_Transmit,??_CAN_Transmit+1
  3083  003CDE  6A03               	clrf	(??_CAN_Transmit+2)& (0+255),c
  3084  003CE0  C002  FF41         	movff	??_CAN_Transmit+1,3905
  3085                           
  3086                           ;main.c: 31: TXB0DLC = 0x08;
  3087  003CE4  0E08               	movlw	8
  3088  003CE6  CFE8 FF45          	movff	wreg,3909
  3089                           
  3090                           ;main.c: 34: TXB0D0 = sendData[0];
  3091  003CEA  C038  FF46         	movff	_sendData,3910	;volatile
  3092                           
  3093                           ;main.c: 35: TXB0D1 = sendData[1];
  3094  003CEE  C039  FF47         	movff	_sendData+1,3911	;volatile
  3095                           
  3096                           ;main.c: 36: TXB0D2 = sendData[2];
  3097  003CF2  C03A  FF48         	movff	_sendData+2,3912	;volatile
  3098                           
  3099                           ;main.c: 37: TXB0D3 = sendData[3];
  3100  003CF6  C03B  FF49         	movff	_sendData+3,3913	;volatile
  3101                           
  3102                           ;main.c: 38: TXB0D4 = sendData[4];
  3103  003CFA  C03C  FF4A         	movff	_sendData+4,3914	;volatile
  3104                           
  3105                           ;main.c: 39: TXB0D5 = sendData[5];
  3106  003CFE  C03D  FF4B         	movff	_sendData+5,3915	;volatile
  3107                           
  3108                           ;main.c: 40: TXB0D6 = sendData[6];
  3109  003D02  C03E  FF4C         	movff	_sendData+6,3916	;volatile
  3110                           
  3111                           ;main.c: 41: TXB0D7 = sendData[7];
  3112  003D06  C03F  FF4D         	movff	_sendData+7,3917	;volatile
  3113                           
  3114                           ;main.c: 44: TXB0CON = (1<<3);
  3115  003D0A  0E08               	movlw	8
  3116  003D0C  CFE8 FF40          	movff	wreg,3904
  3117  003D10  0012               	return	
  3118  003D12  FFFF               	dw	65535	; errata NOP
  3119  003D14                     __end_of_CAN_Transmit:
  3120                           	opt stack 0
  3121  003D14  FFFF               	dw	65535	; assembler added errata NOP
  3122                           prodh	equ	0xFF4
  3123                           prodl	equ	0xFF3
  3124                           postinc0	equ	0xFEE
  3125                           wreg	equ	0xFE8
  3126                           indf2	equ	0xFDF
  3127                           postinc2	equ	0xFDE
  3128                           postdec2	equ	0xFDD
  3129                           fsr2h	equ	0xFDA
  3130                           fsr2l	equ	0xFD9
  3131                           status	equ	0xFD8
  3132                           prodh	equ	0xFF4
  3133                           prodl	equ	0xFF3
  3134                           postinc0	equ	0xFEE
  3135                           wreg	equ	0xFE8
  3136                           indf2	equ	0xFDF
  3137                           postinc2	equ	0xFDE
  3138                           postdec2	equ	0xFDD
  3139                           fsr2h	equ	0xFDA
  3140                           fsr2l	equ	0xFD9
  3141                           status	equ	0xFD8
  3142                           
  3143                           	psect	rparam
  3144  0000                     prodh	equ	0xFF4
  3145                           prodl	equ	0xFF3
  3146                           postinc0	equ	0xFEE
  3147                           wreg	equ	0xFE8
  3148                           indf2	equ	0xFDF
  3149                           postinc2	equ	0xFDE
  3150                           postdec2	equ	0xFDD
  3151                           fsr2h	equ	0xFDA
  3152                           fsr2l	equ	0xFD9
  3153                           status	equ	0xFD8


Data Sizes:
    Strings     0
    Constant    0
    Data        0
    BSS         31
    Persistent  0
    Stack       0

Auto Spaces:
    Space          Size  Autos    Used
    COMRAM           95     47      78
    BANK0           160      0       0
    BANK1           256      0       0
    BANK2           256      0       0
    BANK3           256      0       0
    BANK4           256      0       0
    BANK5           256      0       0

Pointer List with Targets:

    MPU6050_getMotion6@gz	PTR int  size(2) Largest target is 2
		 -> main@gz(COMRAM[2]), 

    MPU6050_getMotion6@gy	PTR int  size(2) Largest target is 2
		 -> main@gy(COMRAM[2]), 

    MPU6050_getMotion6@gx	PTR int  size(2) Largest target is 2
		 -> main@gx(COMRAM[2]), 

    MPU6050_getMotion6@az	PTR int  size(2) Largest target is 2
		 -> main@az(COMRAM[2]), 

    MPU6050_getMotion6@ay	PTR int  size(2) Largest target is 2
		 -> main@ay(COMRAM[2]), 

    MPU6050_getMotion6@ax	PTR int  size(2) Largest target is 2
		 -> main@ax(COMRAM[2]), 

    I2Cdev_writeBytes@data	PTR unsigned char  size(2) Largest target is 1
		 -> I2Cdev_writeByte@data(COMRAM[1]), 

    I2Cdev_readByte@data	PTR unsigned char  size(2) Largest target is 15
		 -> mpu6050(COMRAM[15]), I2Cdev_writeBits@b(COMRAM[1]), I2Cdev_writeBit@b(COMRAM[1]), I2Cdev_readBits@b(COMRAM[1]), 
		 -> I2Cdev_readBit@b(COMRAM[1]), 

    I2Cdev_readBytes@data	PTR unsigned char  size(2) Largest target is 15
		 -> mpu6050(COMRAM[15]), I2Cdev_writeBits@b(COMRAM[1]), I2Cdev_writeBit@b(COMRAM[1]), I2Cdev_readBits@b(COMRAM[1]), 
		 -> I2Cdev_readBit@b(COMRAM[1]), 


Critical Paths under _main in COMRAM

    _setupCANTxRx->_Delay10KTCYx
    _CAN_Init->_CAN_SetMode
    _MPU6050_initialize->_MPU6050_setSleepEnabled
    _MPU6050_setSleepEnabled->_I2Cdev_writeBit
    _I2Cdev_writeBit->_I2Cdev_readByte
    _MPU6050_setFullScaleGyroRange->_I2Cdev_writeBits
    _MPU6050_setFullScaleAccelRange->_I2Cdev_writeBits
    _MPU6050_setClockSource->_I2Cdev_writeBits
    _I2Cdev_writeBits->_I2Cdev_readByte
    _I2Cdev_writeByte->_I2Cdev_writeBytes
    _I2Cdev_writeBytes->_WriteI2C
    _I2Cdev_readByte->_I2Cdev_readBytes
    _initI2C->_OpenUSART
    _flashLED->_delayzz
    _MPU6050_getMotion6->_I2Cdev_readBytes
    _I2Cdev_readBytes->___wmul
    _WriteI2C->_IdleI2C

Critical Paths under _main in BANK0

    None.

Critical Paths under _main in BANK1

    None.

Critical Paths under _main in BANK2

    None.

Critical Paths under _main in BANK3

    None.

Critical Paths under _main in BANK4

    None.

Critical Paths under _main in BANK5

    None.

Call Graph Tables:

 ---------------------------------------------------------------------------------
 (Depth) Function   	        Calls       Base Space   Used Autos Params    Refs
 ---------------------------------------------------------------------------------
 (0) _main                                                12    12      0   68087
                                             35 COMRAM    12    12      0
                       _CAN_Transmit
                 _MPU6050_getMotion6
                            _delayzz
                           _flashLED
                            _initI2C
                        _initMPU6050
                       _setupCANTxRx
 ---------------------------------------------------------------------------------
 (1) _setupCANTxRx                                         0     0      0      45
                           _CAN_Init
                       _Delay10KTCYx
 ---------------------------------------------------------------------------------
 (2) _CAN_Init                                             0     0      0      30
                        _CAN_SetMode
 ---------------------------------------------------------------------------------
 (3) _CAN_SetMode                                          1     1      0      30
                                              0 COMRAM     1     1      0
 ---------------------------------------------------------------------------------
 (1) _initMPU6050                                          0     0      0   62457
                       _Delay10KTCYx
                            _MPU6050
                 _MPU6050_initialize
 ---------------------------------------------------------------------------------
 (2) _MPU6050_initialize                                   0     0      0   62427
             _MPU6050_setClockSource
     _MPU6050_setFullScaleAccelRange
      _MPU6050_setFullScaleGyroRange
            _MPU6050_setSleepEnabled
 ---------------------------------------------------------------------------------
 (3) _MPU6050_setSleepEnabled                              1     1      0   20382
                                             34 COMRAM     1     1      0
                    _I2Cdev_writeBit
 ---------------------------------------------------------------------------------
 (4) _I2Cdev_writeBit                                     12     9      3   20360
                                             22 COMRAM    12     9      3
                    _I2Cdev_readByte
                   _I2Cdev_writeByte
 ---------------------------------------------------------------------------------
 (3) _MPU6050_setFullScaleGyroRange                        1     1      0   14015
                                             32 COMRAM     1     1      0
                   _I2Cdev_writeBits
 ---------------------------------------------------------------------------------
 (3) _MPU6050_setFullScaleAccelRange                       1     1      0   14015
                                             32 COMRAM     1     1      0
                   _I2Cdev_writeBits
 ---------------------------------------------------------------------------------
 (3) _MPU6050_setClockSource                               1     1      0   14015
                                             32 COMRAM     1     1      0
                   _I2Cdev_writeBits
 ---------------------------------------------------------------------------------
 (4) _I2Cdev_writeBits                                    10     6      4   13993
                                             22 COMRAM    10     6      4
                    _I2Cdev_readByte
                   _I2Cdev_writeByte
 ---------------------------------------------------------------------------------
 (5) _I2Cdev_writeByte                                     3     1      2    3032
                                              9 COMRAM     3     1      2
                  _I2Cdev_writeBytes
 ---------------------------------------------------------------------------------
 (6) _I2Cdev_writeBytes                                    6     2      4     315
                                              3 COMRAM     6     2      4
                            _IdleI2C
                           _WriteI2C
 ---------------------------------------------------------------------------------
 (5) _I2Cdev_readByte                                      4     1      3    7042
                                             18 COMRAM     4     1      3
                   _I2Cdev_readBytes
 ---------------------------------------------------------------------------------
 (2) _MPU6050                                              1     1      0      15
                                              0 COMRAM     1     1      0
 ---------------------------------------------------------------------------------
 (1) _initI2C                                              0     0      0     251
                       _Delay10KTCYx
                            _OpenI2C
                          _OpenUSART
 ---------------------------------------------------------------------------------
 (2) _OpenUSART                                            3     1      2     163
                                              0 COMRAM     3     1      2
 ---------------------------------------------------------------------------------
 (2) _OpenI2C                                              2     1      1      73
                                              0 COMRAM     2     1      1
 ---------------------------------------------------------------------------------
 (2) _Delay10KTCYx                                         2     2      0      15
                                              0 COMRAM     2     2      0
 ---------------------------------------------------------------------------------
 (1) _flashLED                                             2     2      0      75
                                              4 COMRAM     2     2      0
                            _delayzz
 ---------------------------------------------------------------------------------
 (2) _delayzz                                              4     4      0      60
                                              0 COMRAM     4     4      0
 ---------------------------------------------------------------------------------
 (1) _MPU6050_getMotion6                                  14     2     12    4988
                                             18 COMRAM    14     2     12
                   _I2Cdev_readBytes
 ---------------------------------------------------------------------------------
 (6) _I2Cdev_readBytes                                    12     8      4    4220
                                              6 COMRAM    12     8      4
                            _IdleI2C
                            _ReadI2C
                           _WriteI2C
                             ___wmul
 ---------------------------------------------------------------------------------
 (7) ___wmul                                               6     2      4     477
                                              0 COMRAM     6     2      4
 ---------------------------------------------------------------------------------
 (7) _WriteI2C                                             2     2      0      22
                                              1 COMRAM     2     2      0
                            _IdleI2C
 ---------------------------------------------------------------------------------
 (8) _IdleI2C                                              1     1      0       0
                                              0 COMRAM     1     1      0
 ---------------------------------------------------------------------------------
 (7) _ReadI2C                                              1     1      0       0
                                              0 COMRAM     1     1      0
 ---------------------------------------------------------------------------------
 (1) _CAN_Transmit                                         5     5      0      45
                                              0 COMRAM     5     5      0
 ---------------------------------------------------------------------------------
 Estimated maximum stack depth 8
 ---------------------------------------------------------------------------------

 Call Graph Graphs:

 _main (ROOT)
   _CAN_Transmit
   _MPU6050_getMotion6
     _I2Cdev_readBytes
       _IdleI2C
       _ReadI2C
       _WriteI2C
         _IdleI2C
       ___wmul
   _delayzz
   _flashLED
     _delayzz
   _initI2C
     _Delay10KTCYx
     _OpenI2C
     _OpenUSART
   _initMPU6050
     _Delay10KTCYx
     _MPU6050
     _MPU6050_initialize
       _MPU6050_setClockSource
         _I2Cdev_writeBits
           _I2Cdev_readByte
             _I2Cdev_readBytes
               _IdleI2C
               _ReadI2C
               _WriteI2C
                 _IdleI2C
               ___wmul
           _I2Cdev_writeByte
             _I2Cdev_writeBytes
               _IdleI2C
               _WriteI2C
                 _IdleI2C
       _MPU6050_setFullScaleAccelRange
         _I2Cdev_writeBits
           _I2Cdev_readByte
             _I2Cdev_readBytes
               _IdleI2C
               _ReadI2C
               _WriteI2C
                 _IdleI2C
               ___wmul
           _I2Cdev_writeByte
             _I2Cdev_writeBytes
               _IdleI2C
               _WriteI2C
                 _IdleI2C
       _MPU6050_setFullScaleGyroRange
         _I2Cdev_writeBits
           _I2Cdev_readByte
             _I2Cdev_readBytes
               _IdleI2C
               _ReadI2C
               _WriteI2C
                 _IdleI2C
               ___wmul
           _I2Cdev_writeByte
             _I2Cdev_writeBytes
               _IdleI2C
               _WriteI2C
                 _IdleI2C
       _MPU6050_setSleepEnabled
         _I2Cdev_writeBit
           _I2Cdev_readByte
             _I2Cdev_readBytes
               _IdleI2C
               _ReadI2C
               _WriteI2C
                 _IdleI2C
               ___wmul
           _I2Cdev_writeByte
             _I2Cdev_writeBytes
               _IdleI2C
               _WriteI2C
                 _IdleI2C
   _setupCANTxRx
     _CAN_Init
       _CAN_SetMode
     _Delay10KTCYx

 Address spaces:
Name               Size   Autos  Total    Cost      Usage
BIGRAM             5FF      0       0      16        0.0%
EEDATA             100      0       0       0        0.0%
BITBANK5           100      0       0      14        0.0%
BANK5              100      0       0      15        0.0%
BITBANK4           100      0       0      12        0.0%
BANK4              100      0       0      13        0.0%
BITBANK3           100      0       0      10        0.0%
BANK3              100      0       0      11        0.0%
BITBANK2           100      0       0       7        0.0%
BANK2              100      0       0       8        0.0%
BITBANK1           100      0       0       5        0.0%
BANK1              100      0       0       6        0.0%
BITBANK0            A0      0       0       3        0.0%
BANK0               A0      0       0       4        0.0%
BITCOMRAM           5F      0       0       0        0.0%
COMRAM              5F     2F      4E       1       82.1%
BITSFR_1             0      0       0      40        0.0%
SFR_1                0      0       0      40        0.0%
BITSFR               0      0       0      40        0.0%
SFR                  0      0       0      40        0.0%
STACK                0      0       0       2        0.0%
NULL                 0      0       0       0        0.0%
ABS                  0      0      4E       9        0.0%
DATA                 0      0      4E      17        0.0%
CODE                 0      0       0       0        0.0%


Microchip Technology PIC18 Macro Assembler V1.32 build 58300 
Symbol Table                                                                                   Fri Oct 30 15:30:14 2015

                                            __size_of_MPU6050_setClockSource 001E  
                                                                _SSPSTATbits 000FC7  
                                                                __CFG_BOR$ON 000000  
                                                        ___wmul@multiplicand 0003  
                                                               __CFG_CP0$OFF 000000  
                                                               __CFG_CP1$OFF 000000  
                                                               __CFG_CP2$OFF 000000  
                                                               __CFG_CP3$OFF 000000  
                                                                        l113 3E2C  
                                                                        l130 3F02  
                                                                        l122 3EC4  
                                                                        l116 3E4C  
                                                                        l126 3ED2  
                                                                        l227 3E1A  
                                                                        l182 3AA8  
                                                                        l188 3AF2  
                                                               __CFG_CPB$OFF 000000  
                                                               __CFG_CPD$OFF 000000  
                                                                        u635 3CB0  
                                                               __CFG_BORV$25 000000  
                                                                        wreg 000FE8  
                                                       ??_MPU6050_initialize 0024  
                                                       __end_of_CAN_Transmit 3D14  
                                                           _I2Cdev_writeBits 3D94  
                                                           _I2Cdev_writeByte 38FC  
                                                               __CFG_LVP$OFF 000000  
                                                               ?_initMPU6050 0001  
                                                            __end_of_MPU6050 3840  
                                                               __CFG_WDT$OFF 000000  
                                                                       l1110 3B38  
                                                                       l1111 3B42  
                                                                       l1112 3B44  
                                                                       l1105 3B20  
                                                                       l1114 3B58  
                                                                       l1035 3A9A  
                                                                       l1107 3B2A  
                                                                       l1060 3CC2  
                                                                       l1108 3B2C  
                                                                       l1109 3B36  
                                                                       l2103 3B22  
                                                                       l2041 3A94  
                                                                       l1170 3BC0  
                                                                       l1148 3A50  
                                                                       l1412 38C6  
                                                                       l1149 3A52  
                                                                       l1173 3B8A  
                                                                       l1182 3BB6  
                                                                       l2231 3A10  
                                                                       l3205 3B96  
                                                                       l2095 3B14  
                                                                       l3313 3D54  
                                                                       l3315 3D7E  
                                                                       l3181 3854  
                                                                       l3245 3E62  
                                                                       l3263 3ED6  
                                                                       l3257 3ECA  
                                                                       l3265 3ED8  
                                                                       l3283 3AC8  
                                                                       l3289 3AE4  
                                                                       l1939 3898  
                                                                       l4385 3C40  
                                                                       l4397 3C92  
                                                                       u1310 3DFA  
                                                                       u1304 3DDC  
                                                                       u1305 3DD8  
                                                                       u1315 3DF6  
                                                                       u1175 3EB8  
                                                                       u1264 3D40  
                                                                       u1265 3D3C  
                                                                       u1274 3D68  
                                                                       u1275 3D62  
                                                                       u1294 3DCC  
                                                                       u1295 3DC8  
                                                                       u1847 38CC  
                                                               __CFG_PWRT$ON 000000  
                                                                       _main 3C2C  
                                                                       fsr2h 000FDA  
                                                                       indf2 000FDF  
                                                                       fsr2l 000FD9  
                                                                       prodh 000FF4  
                                                                       prodl 000FF3  
                                                                       start 0002  
                                                            __end_of_IdleI2C 3866  
                                                           __end_of_CAN_Init 3C2C  
                                                            __end_of_ReadI2C 3A5C  
                                                            __end_of_OpenI2C 39B4  
                                                          _I2Cdev_writeBytes 3A9E  
                                                              __CFG_OSCS$OFF 000000  
                                                             MPU6050@address 0001  
                                                         ?_I2Cdev_writeBytes 0004  
                                                                      ?_main 0001  
                                                   __size_of_I2Cdev_readByte 001E  
                                                                      _RCSTA 000FAB  
                                                                      _SPBRG 000FAF  
                                                                      _TRISB 000F93  
                                                    I2Cdev_writeByte@devAddr 000C  
                                                      __size_of_Delay10KTCYx 001C  
                                                                      _TXSTA 000FAC  
                                                              __CFG_WRT0$OFF 000000  
                                                              __CFG_WRT1$OFF 000000  
                                                              __CFG_WRT2$OFF 000000  
                                                            __end_of_delayzz 3A9E  
                                                              __CFG_WRT3$OFF 000000  
                                                             __CFG_EBTR0$OFF 000000  
                                                             __CFG_EBTR1$OFF 000000  
                                                        ??_I2Cdev_writeBytes 0008  
                                                             __CFG_EBTR2$OFF 000000  
                                                             __CFG_EBTR3$OFF 000000  
                                                              __CFG_STVR$OFF 000000  
                                                              __CFG_WRTB$OFF 000000  
                                                              __CFG_WRTC$OFF 000000  
                                         MPU6050_setFullScaleGyroRange@range 0021  
                                                              __CFG_WRTD$OFF 000000  
                                                            __end_of_initI2C 39DC  
                                                       __size_of_CAN_SetMode 0018  
                                                             __CFG_EBTRB$OFF 000000  
                                                    I2Cdev_writeByte@regAddr 000A  
                                               MPU6050_setClockSource@source 0021  
                                                     _MPU6050_setClockSource 391A  
                                                                      status 000FD8  
                                                   __size_of_I2Cdev_writeBit 007E  
                                                  __end_of_I2Cdev_writeBytes 3AFC  
                                                            __initialization 3840  
                                                               __end_of_main 3C9C  
                                                               _Delay10KTCYx 38C2  
                                                             __CFG_OSC$HSPLL 000000  
                                                                     ??_main 0024  
                                                              __activetblptr 000000  
                                            ??_MPU6050_setFullScaleGyroRange 0021  
                                                                  ??_MPU6050 0001  
                                                      I2Cdev_readBytes@count 0012  
                                                    I2Cdev_writeBytes@length 0005  
                                                                     _CANCON 000F6F  
                                                           __end_of_WriteI2C 3BC4  
                                                                OpenI2C@slew 0001  
                                                   ?_MPU6050_setSleepEnabled 0001  
                                                                  ??_IdleI2C 0001  
                                                                     _RXB0D0 000F66  
                                                                     _RXB0D1 000F67  
                                                                     _RXB0D2 000F68  
                                                                     _RXB0D3 000F69  
                                                                     _RXB0D4 000F6A  
                                                                     _RXB0D5 000F6B  
                                                                     _RXB0D6 000F6C  
                                                                     _RXB0D7 000F6D  
                                                             __CFG_WDTPS$128 000000  
                                                                     _TXB0D0 000F46  
                                                                     _TXB0D1 000F47  
                                                                     _TXB0D2 000F48  
                                                                     _TXB0D3 000F49  
                                                                     _TXB0D4 000F4A  
                                                                     _TXB0D5 000F4B  
                                                                     _TXB0D6 000F4C  
                                                                     _TXB0D7 000F4D  
                                                                     _SSPADD 000FC8  
                                                                     _SSPBUF 000FC9  
                                                                  ??_ReadI2C 0001  
                                                                  ??_OpenI2C 0002  
                                                           __end_of_flashLED 3A30  
                                                         __size_of_OpenUSART 0060  
                                                   __end_of_I2Cdev_readBytes 3F0C  
                                                                     ___wmul 39DC  
                                                                     clear_0 3846  
                                                                  ??_delayzz 0001  
                                                                     main@ax 0024  
                                                                     main@ay 002E  
                                                                     main@az 0026  
                                                                     main@gx 0028  
                                                                     main@gy 002A  
                                                                     main@gz 002C  
                                                      __size_of_CAN_Transmit 0078  
                                                                  ??_initI2C 0004  
                                                           I2Cdev_writeBit@b 0022  
                                                                  ?_CAN_Init 0001  
                                                          ??_I2Cdev_readByte 0016  
                                                       __size_of_initMPU6050 0016  
                                                                 __accesstop 0060  
                                                    __end_of__initialization 384C  
                                                     I2Cdev_readByte@devAddr 0016  
                                             MPU6050_setSleepEnabled@enabled 0023  
                                                         CAN_SetMode@canMode 0001  
                                                     I2Cdev_readByte@regAddr 0013  
                                                 __size_of_I2Cdev_writeBytes 005E  
                                                             __pcstackCOMRAM 0001  
                                                   __end_of_I2Cdev_writeBits 3E1E  
                                                               _CAN_Transmit 3C9C  
                                                   __end_of_I2Cdev_writeByte 391A  
                                                          ??_I2Cdev_writeBit 001A  
                                                        _I2Cdev_writeBit$356 001F  
                                            __end_of_MPU6050_setSleepEnabled 38C2  
                                                                 ??_CAN_Init 0002  
                                                __size_of_MPU6050_getMotion6 00F4  
                                                          __end_of_OpenUSART 3B5C  
                                      __end_of_MPU6050_setFullScaleGyroRange 3974  
                                     __size_of_MPU6050_setFullScaleGyroRange 001E  
                                              _MPU6050_setFullScaleGyroRange 3956  
                                                   I2Cdev_writeBytes@devAddr 0008  
                                                     I2Cdev_readBytes@length 0008  
                                                   I2Cdev_writeBytes@regAddr 0004  
                                                                    ?___wmul 0001  
                                                                    _CANSTAT 000F6E  
                                                                  ?_WriteI2C 0001  
                                                                    _BRGCON1 000F70  
                                                                    _BRGCON2 000F71  
                                                                    _MPU6050 3834  
                                                    ?_MPU6050_setClockSource 0001  
                                                                    _RXB0CON 000F60  
                                                                    _RXB1CON 000F50  
                                                __size_of_MPU6050_initialize 001E  
                                                                    _TXB0DLC 000F45  
                                                                    _TXB0CON 000F40  
                                                                  ?_flashLED 0001  
                                                                    _SSPCON1 000FC6  
                                                                    _SSPCON2 000FC5  
                                                                    _SSPSTAT 000FC7  
                                                                    _IdleI2C 3852  
                                                                    _ReadI2C 3A30  
                                                                    _OpenI2C 3992  
                                                                    __Hparam 0000  
                                                                    __Lparam 0000  
                                                            __size_of___wmul 002A  
                                                                    __pcinit 3840  
                                                                 ??_WriteI2C 0002  
                                                                    __ramtop 0600  
                                                                    _delayzz 3A5C  
                                                                    __ptext0 3C2C  
                                                                    __ptext1 3866  
                                                                    __ptext2 3BC4  
                                                                    __ptext3 3890  
                                                                    __ptext4 387A  
                                                                    __ptext5 3974  
                                                                    __ptext6 38A8  
                                                                    __ptext7 3D16  
                                                                    __ptext8 3956  
                                                                    __ptext9 3938  
                                                                    _mpu6050 0040  
                                                                    _initI2C 39B4  
                                             __end_of_MPU6050_setClockSource 3938  
                                                              ??_CAN_SetMode 0001  
                                                              ?_setupCANTxRx 0001  
                                     __end_of_MPU6050_setFullScaleAccelRange 3956  
                                    __size_of_MPU6050_setFullScaleAccelRange 001E  
                                             _MPU6050_setFullScaleAccelRange 3938  
                                                      I2Cdev_writeBit@bitNum 0018  
                                                                 ??_flashLED 0005  
                                        MPU6050_setFullScaleAccelRange@range 0021  
                                                       end_of_initialization 384C  
                                             ?_MPU6050_setFullScaleGyroRange 0001  
                                                          I2Cdev_writeBits@b 0020  
                                                                  _RCSTAbits 000FAB  
                                                                    postdec2 000FDD  
                                                                    postinc0 000FEE  
                                                                    postinc2 000FDE  
                                                          ?_I2Cdev_readBytes 0007  
                                           __size_of_MPU6050_setSleepEnabled 001A  
                                                         ??_I2Cdev_readBytes 000B  
                                                            _I2Cdev_readByte 38DE  
                                                             ??_setupCANTxRx 0003  
                                                                  _TRISBbits 000F93  
                                                                  _TRISCbits 000F94  
                                                        __end_of_CAN_SetMode 38A8  
                                                          __size_of_CAN_Init 0068  
                                                            _I2Cdev_writeBit 3D16  
                                                                  _TXSTAbits 000FAC  
                                                          ?_I2Cdev_writeBits 0017  
                                                      I2Cdev_writeBytes@data 0006  
                                                          ?_I2Cdev_writeByte 000A  
                                                             __end_of___wmul 3A06  
                                                         ??_I2Cdev_writeBits 001B  
                                                         ??_I2Cdev_writeByte 000C  
                                                        start_initialization 3840  
                                                              ??_initMPU6050 0024  
                                                           WriteI2C@data_out 0003  
                                                       I2Cdev_readBytes@data 0009  
                                                                  _OpenUSART 3AFC  
                                                    __end_of_I2Cdev_readByte 38FC  
                                                                   ??___wmul 0005  
                                                          __size_of_WriteI2C 0068  
                                                 __end_of_MPU6050_getMotion6 4000  
                                                                _CAN_SetMode 3890  
                                                                   ?_MPU6050 0001  
                                                                __pbssCOMRAM 0030  
                                                    __end_of_I2Cdev_writeBit 3D94  
                                                    I2Cdev_readBytes@devAddr 0011  
                                                          __size_of_flashLED 002A  
                                                                   ?_IdleI2C 0001  
                                                                 ?_OpenUSART 0001  
                                                    I2Cdev_readBytes@regAddr 0007  
                                                                   ?_ReadI2C 0001  
                                                        __end_of_initMPU6050 3890  
                                                                   ?_OpenI2C 0001  
                                                       __end_of_setupCANTxRx 387A  
                                                    _MPU6050_setSleepEnabled 38A8  
                                                              ?_Delay10KTCYx 0001  
                                                          CAN_Transmit@canId 0004  
                                                                   ?_delayzz 0001  
                                                                   ?_initI2C 0001  
                                                 __end_of_MPU6050_initialize 3992  
                                                                   _CAN_Init 3BC4  
                                                               _receivedData 0030  
                                                             ___wmul@product 0005  
                                                                   _LATBbits 000F8A  
                                                                   _PIE1bits 000F9D  
                                           ??_MPU6050_setFullScaleAccelRange 0021  
                                            ?_MPU6050_setFullScaleAccelRange 0001  
                                                                   _PIR1bits 000F9E  
                                                       I2Cdev_writeBits@data 001A  
                                                           ?_I2Cdev_readByte 0013  
                                                       I2Cdev_writeBits@mask 001F  
                                                                   _RXB0SIDH 000F61  
                                                                   _RXB0SIDL 000F62  
                                                             ??_Delay10KTCYx 0001  
                                                                   _RXF0SIDL 000F01  
                                                                   _RXF1SIDL 000F05  
                                                                   _RXF2SIDL 000F09  
                                                                   _RXF3SIDL 000F0D  
                                                                   _RXF4SIDL 000F11  
                                                                   _RXF5SIDL 000F15  
                                                                   _TXB0SIDH 000F41  
                                                                   _TXB0SIDL 000F42  
                                                                   _RXM0SIDH 000F18  
                                                                   _RXM0SIDL 000F19  
                                                                   _RXM1SIDH 000F1C  
                                                                   _RXM1SIDL 000F1D  
                                                          ___wmul@multiplier 0001  
                                                       I2Cdev_writeByte@data 000B  
                                                           Delay10KTCYx@unit 0002  
                                                           __size_of_MPU6050 000C  
                                                  __size_of_I2Cdev_readBytes 00EE  
                                                           ?_I2Cdev_writeBit 0017  
                                                   I2Cdev_writeBits@bitStart 0018  
                                                                _initMPU6050 387A  
                                                        I2Cdev_readByte@data 0014  
                                                           OpenI2C@sync_mode 0002  
                                                                ??_OpenUSART 0003  
                                                           __size_of_IdleI2C 0014  
                                                            OpenUSART@config 0003  
                                                  ??_MPU6050_setSleepEnabled 0023  
                                                           __size_of_ReadI2C 002C  
                                                                   __Hrparam 0000  
                                                           __size_of_OpenI2C 0022  
                                                                   __Lrparam 0000  
                                                              ?_CAN_Transmit 0001  
                                                                   _WriteI2C 3B5C  
                                                           __size_of_delayzz 0042  
                                                           __size_of_initI2C 0028  
                                                                   __ptext10 391A  
                                                                   __ptext11 3D94  
                                                                   __ptext20 3A06  
                                                                   __ptext12 38FC  
                                                                   __ptext21 3A5C  
                                                                   __ptext13 3A9E  
                                                                   __ptext22 3F0C  
                                                                   __ptext14 38DE  
                                                                   __ptext23 3E1E  
                                                                   __ptext15 3834  
                                                                   __ptext24 39DC  
                                                                   __ptext16 39B4  
                                                                   __ptext25 3B5C  
                                                                   __ptext17 3AFC  
                                                                   __ptext26 3852  
                                                                   __ptext18 3992  
                                                                   __ptext27 3A30  
                                                                   __ptext19 38C2  
                                                                   __ptext28 3C9C  
                                                  __size_of_I2Cdev_writeBits 008A  
                                                                   _flashLED 3A06  
                                                  __size_of_I2Cdev_writeByte 001E  
                                                      __size_of_setupCANTxRx 0014  
                                                              __size_of_main 0070  
                                                        I2Cdev_writeBit@data 0019  
                                                                   _sendData 0038  
                                                                   delayzz@i 0001  
                                                                   delayzz@j 0003  
                                                              flashLED@count 0005  
                                                             ??_CAN_Transmit 0001  
                                                     I2Cdev_writeBit@devAddr 0021  
                                                   ??_MPU6050_setClockSource 0021  
                                                    I2Cdev_writeBits@devAddr 001E  
                                                     I2Cdev_writeBit@regAddr 0017  
                                                    I2Cdev_writeBits@regAddr 0017  
                                                               ?_CAN_SetMode 0001  
                                                             OpenUSART@spbrg 0001  
                                                               _setupCANTxRx 3866  
                                                       __end_of_Delay10KTCYx 38DE  
                                                         _MPU6050_getMotion6 3F0C  
                                                       MPU6050_getMotion6@ax 0013  
                                                       MPU6050_getMotion6@ay 0015  
                                                       MPU6050_getMotion6@az 0017  
                                                       MPU6050_getMotion6@gx 0019  
                                                       MPU6050_getMotion6@gy 001B  
                                                       MPU6050_getMotion6@gz 001D  
                                                        ?_MPU6050_getMotion6 0013  
                                                         I2Cdev_writeBytes@i 0009  
                                                     I2Cdev_writeBits@length 0019  
                                                       ??_MPU6050_getMotion6 001F  
                                                                _SSPCON1bits 000FC6  
                                                           _I2Cdev_readBytes 3E1E  
                                                                _SSPCON2bits 000FC5  
                                                         _MPU6050_initialize 3974  
                                                        ?_MPU6050_initialize 0001  
